ccopy_reg
_reconstructor
p1
(cmatplotlib.font_manager
FontManager
p2
c__builtin__
object
p3
NtRp4
(dp5
S'ttflist'
p6
(lp7
g1
(cmatplotlib.font_manager
FontEntry
p8
g3
NtRp9
(dp10
S'style'
p11
Vitalic
p12
sS'name'
p13
S'STIXNonUnicode'
p14
sS'weight'
p15
I700
sS'stretch'
p16
Vnormal
p17
sS'variant'
p18
g17
sS'fname'
p19
V/Users/uranus/anaconda/lib/python2.7/site-packages/matplotlib/mpl-data/fonts/ttf/STIXNonUniBolIta.ttf
p20
sS'size'
p21
Vscalable
p22
sbag1
(g8
g3
NtRp23
(dp24
g11
g17
sg13
S'STIXSizeOneSym'
p25
sg15
I700
sg16
g17
sg18
g17
sg19
V/Users/uranus/anaconda/lib/python2.7/site-packages/matplotlib/mpl-data/fonts/ttf/STIXSizOneSymBol.ttf
p26
sg21
g22
sbag1
(g8
g3
NtRp27
(dp28
g11
g17
sg13
S'cmr10'
p29
sg15
I400
sg16
g17
sg18
g17
sg19
V/Users/uranus/anaconda/lib/python2.7/site-packages/matplotlib/mpl-data/fonts/ttf/cmr10.ttf
p30
sg21
g22
sbag1
(g8
g3
NtRp31
(dp32
g11
Voblique
p33
sg13
S'Bitstream Vera Sans Mono'
p34
sg15
I700
sg16
g17
sg18
g17
sg19
V/Users/uranus/anaconda/lib/python2.7/site-packages/matplotlib/mpl-data/fonts/ttf/VeraMoBI.ttf
p35
sg21
g22
sbag1
(g8
g3
NtRp36
(dp37
g11
g12
sg13
S'STIXGeneral'
p38
sg15
I700
sg16
g17
sg18
g17
sg19
V/Users/uranus/anaconda/lib/python2.7/site-packages/matplotlib/mpl-data/fonts/ttf/STIXGeneralBolIta.ttf
p39
sg21
g22
sbag1
(g8
g3
NtRp40
(dp41
g11
g17
sg13
S'Bitstream Vera Sans'
p42
sg15
I700
sg16
g17
sg18
g17
sg19
V/Users/uranus/anaconda/lib/python2.7/site-packages/matplotlib/mpl-data/fonts/ttf/VeraBd.ttf
p43
sg21
g22
sbag1
(g8
g3
NtRp44
(dp45
g11
g17
sg13
S'STIXSizeThreeSym'
p46
sg15
I700
sg16
g17
sg18
g17
sg19
V/Users/uranus/anaconda/lib/python2.7/site-packages/matplotlib/mpl-data/fonts/ttf/STIXSizThreeSymBol.ttf
p47
sg21
g22
sbag1
(g8
g3
NtRp48
(dp49
g11
g12
sg13
S'STIXNonUnicode'
p50
sg15
I400
sg16
g17
sg18
g17
sg19
V/Users/uranus/anaconda/lib/python2.7/site-packages/matplotlib/mpl-data/fonts/ttf/STIXNonUniIta.ttf
p51
sg21
g22
sbag1
(g8
g3
NtRp52
(dp53
g11
g17
sg13
S'STIXSizeFourSym'
p54
sg15
I700
sg16
g17
sg18
g17
sg19
V/Users/uranus/anaconda/lib/python2.7/site-packages/matplotlib/mpl-data/fonts/ttf/STIXSizFourSymBol.ttf
p55
sg21
g22
sbag1
(g8
g3
NtRp56
(dp57
g11
g17
sg13
S'STIXSizeTwoSym'
p58
sg15
I400
sg16
g17
sg18
g17
sg19
V/Users/uranus/anaconda/lib/python2.7/site-packages/matplotlib/mpl-data/fonts/ttf/STIXSizTwoSymReg.ttf
p59
sg21
g22
sbag1
(g8
g3
NtRp60
(dp61
g11
g17
sg13
S'cmsy10'
p62
sg15
I400
sg16
g17
sg18
g17
sg19
V/Users/uranus/anaconda/lib/python2.7/site-packages/matplotlib/mpl-data/fonts/ttf/cmsy10.ttf
p63
sg21
g22
sbag1
(g8
g3
NtRp64
(dp65
g11
g17
sg13
S'Bitstream Vera Sans'
p66
sg15
I400
sg16
g17
sg18
g17
sg19
V/Users/uranus/anaconda/lib/python2.7/site-packages/matplotlib/mpl-data/fonts/ttf/Vera.ttf
p67
sg21
g22
sbag1
(g8
g3
NtRp68
(dp69
g11
g17
sg13
S'STIXNonUnicode'
p70
sg15
I700
sg16
g17
sg18
g17
sg19
V/Users/uranus/anaconda/lib/python2.7/site-packages/matplotlib/mpl-data/fonts/ttf/STIXNonUniBol.ttf
p71
sg21
g22
sbag1
(g8
g3
NtRp72
(dp73
g11
g17
sg13
S'cmss10'
p74
sg15
I400
sg16
g17
sg18
g17
sg19
V/Users/uranus/anaconda/lib/python2.7/site-packages/matplotlib/mpl-data/fonts/ttf/cmss10.ttf
p75
sg21
g22
sbag1
(g8
g3
NtRp76
(dp77
g11
g17
sg13
S'STIXSizeFourSym'
p78
sg15
I400
sg16
g17
sg18
g17
sg19
V/Users/uranus/anaconda/lib/python2.7/site-packages/matplotlib/mpl-data/fonts/ttf/STIXSizFourSymReg.ttf
p79
sg21
g22
sbag1
(g8
g3
NtRp80
(dp81
g11
g17
sg13
S'STIXGeneral'
p82
sg15
I700
sg16
g17
sg18
g17
sg19
V/Users/uranus/anaconda/lib/python2.7/site-packages/matplotlib/mpl-data/fonts/ttf/STIXGeneralBol.ttf
p83
sg21
g22
sbag1
(g8
g3
NtRp84
(dp85
g11
g33
sg13
S'Bitstream Vera Sans'
p86
sg15
I400
sg16
g17
sg18
g17
sg19
V/Users/uranus/anaconda/lib/python2.7/site-packages/matplotlib/mpl-data/fonts/ttf/VeraIt.ttf
p87
sg21
g22
sbag1
(g8
g3
NtRp88
(dp89
g11
g12
sg13
S'STIXGeneral'
p90
sg15
I400
sg16
g17
sg18
g17
sg19
V/Users/uranus/anaconda/lib/python2.7/site-packages/matplotlib/mpl-data/fonts/ttf/STIXGeneralItalic.ttf
p91
sg21
g22
sbag1
(g8
g3
NtRp92
(dp93
g11
g33
sg13
S'Bitstream Vera Sans'
p94
sg15
I700
sg16
g17
sg18
g17
sg19
V/Users/uranus/anaconda/lib/python2.7/site-packages/matplotlib/mpl-data/fonts/ttf/VeraBI.ttf
p95
sg21
g22
sbag1
(g8
g3
NtRp96
(dp97
g11
g17
sg13
S'STIXSizeThreeSym'
p98
sg15
I400
sg16
g17
sg18
g17
sg19
V/Users/uranus/anaconda/lib/python2.7/site-packages/matplotlib/mpl-data/fonts/ttf/STIXSizThreeSymReg.ttf
p99
sg21
g22
sbag1
(g8
g3
NtRp100
(dp101
g11
g17
sg13
S'STIXSizeOneSym'
p102
sg15
I400
sg16
g17
sg18
g17
sg19
V/Users/uranus/anaconda/lib/python2.7/site-packages/matplotlib/mpl-data/fonts/ttf/STIXSizOneSymReg.ttf
p103
sg21
g22
sbag1
(g8
g3
NtRp104
(dp105
g11
g17
sg13
S'Bitstream Vera Sans Mono'
p106
sg15
I700
sg16
g17
sg18
g17
sg19
V/Users/uranus/anaconda/lib/python2.7/site-packages/matplotlib/mpl-data/fonts/ttf/VeraMoBd.ttf
p107
sg21
g22
sbag1
(g8
g3
NtRp108
(dp109
g11
g17
sg13
S'cmmi10'
p110
sg15
I400
sg16
g17
sg18
g17
sg19
V/Users/uranus/anaconda/lib/python2.7/site-packages/matplotlib/mpl-data/fonts/ttf/cmmi10.ttf
p111
sg21
g22
sbag1
(g8
g3
NtRp112
(dp113
g11
g17
sg13
S'cmb10'
p114
sg15
I400
sg16
g17
sg18
g17
sg19
V/Users/uranus/anaconda/lib/python2.7/site-packages/matplotlib/mpl-data/fonts/ttf/cmb10.ttf
p115
sg21
g22
sbag1
(g8
g3
NtRp116
(dp117
g11
g17
sg13
S'Bitstream Vera Sans Mono'
p118
sg15
I400
sg16
g17
sg18
g17
sg19
V/Users/uranus/anaconda/lib/python2.7/site-packages/matplotlib/mpl-data/fonts/ttf/VeraMono.ttf
p119
sg21
g22
sbag1
(g8
g3
NtRp120
(dp121
g11
g17
sg13
S'Bitstream Vera Serif'
p122
sg15
I700
sg16
g17
sg18
g17
sg19
V/Users/uranus/anaconda/lib/python2.7/site-packages/matplotlib/mpl-data/fonts/ttf/VeraSeBd.ttf
p123
sg21
g22
sbag1
(g8
g3
NtRp124
(dp125
g11
g17
sg13
S'STIXGeneral'
p126
sg15
I400
sg16
g17
sg18
g17
sg19
V/Users/uranus/anaconda/lib/python2.7/site-packages/matplotlib/mpl-data/fonts/ttf/STIXGeneral.ttf
p127
sg21
g22
sbag1
(g8
g3
NtRp128
(dp129
g11
g17
sg13
S'cmex10'
p130
sg15
I400
sg16
g17
sg18
g17
sg19
V/Users/uranus/anaconda/lib/python2.7/site-packages/matplotlib/mpl-data/fonts/ttf/cmex10.ttf
p131
sg21
g22
sbag1
(g8
g3
NtRp132
(dp133
g11
g17
sg13
S'STIXNonUnicode'
p134
sg15
I400
sg16
g17
sg18
g17
sg19
V/Users/uranus/anaconda/lib/python2.7/site-packages/matplotlib/mpl-data/fonts/ttf/STIXNonUni.ttf
p135
sg21
g22
sbag1
(g8
g3
NtRp136
(dp137
g11
g17
sg13
S'Bitstream Vera Serif'
p138
sg15
I400
sg16
g17
sg18
g17
sg19
V/Users/uranus/anaconda/lib/python2.7/site-packages/matplotlib/mpl-data/fonts/ttf/VeraSe.ttf
p139
sg21
g22
sbag1
(g8
g3
NtRp140
(dp141
g11
g17
sg13
S'cmtt10'
p142
sg15
I400
sg16
g17
sg18
g17
sg19
V/Users/uranus/anaconda/lib/python2.7/site-packages/matplotlib/mpl-data/fonts/ttf/cmtt10.ttf
p143
sg21
g22
sbag1
(g8
g3
NtRp144
(dp145
g11
g17
sg13
S'STIXSizeTwoSym'
p146
sg15
I700
sg16
g17
sg18
g17
sg19
V/Users/uranus/anaconda/lib/python2.7/site-packages/matplotlib/mpl-data/fonts/ttf/STIXSizTwoSymBol.ttf
p147
sg21
g22
sbag1
(g8
g3
NtRp148
(dp149
g11
g17
sg13
S'STIXSizeFiveSym'
p150
sg15
I400
sg16
g17
sg18
g17
sg19
V/Users/uranus/anaconda/lib/python2.7/site-packages/matplotlib/mpl-data/fonts/ttf/STIXSizFiveSymReg.ttf
p151
sg21
g22
sbag1
(g8
g3
NtRp152
(dp153
g11
g33
sg13
S'Bitstream Vera Sans Mono'
p154
sg15
I400
sg16
g17
sg18
g17
sg19
V/Users/uranus/anaconda/lib/python2.7/site-packages/matplotlib/mpl-data/fonts/ttf/VeraMoIt.ttf
p155
sg21
g22
sbag1
(g8
g3
NtRp156
(dp157
g11
g12
sg13
S'Trebuchet MS'
p158
sg15
I400
sg16
g17
sg18
g17
sg19
V/Library/Fonts/Trebuchet MS Italic.ttf
p159
sg21
g22
sbag1
(g8
g3
NtRp160
(dp161
g11
g17
sg13
S'Times New Roman'
p162
sg15
I500
sg16
g17
sg18
g17
sg19
V/Library/Fonts/Times New Roman.ttf
p163
sg21
g22
sbag1
(g8
g3
NtRp164
(dp165
g11
g17
sg13
S'Osaka'
p166
sg15
I400
sg16
g17
sg18
g17
sg19
V/Library/Fonts/Osaka.ttf
p167
sg21
g22
sbag1
(g8
g3
NtRp168
(dp169
g11
g17
sg13
S'Source Code Pro for Powerline'
p170
sg15
I200
sg16
g17
sg18
g17
sg19
V/Users/uranus/Library/Fonts/Sauce Code Powerline Light.otf
p171
sg21
g22
sbag1
(g8
g3
NtRp172
(dp173
g11
g17
sg13
S'Serto Urhoy'
p174
sg15
I400
sg16
g17
sg18
g17
sg19
V/usr/X11/lib/X11/fonts/OTF/SyrCOMUrhoy.otf
p175
sg21
g22
sbag1
(g8
g3
NtRp176
(dp177
g11
g12
sg13
S'Gill Sans MT'
p178
sg15
I400
sg16
g17
sg18
g17
sg19
V/Library/Fonts/Microsoft/Gill Sans MT Italic.ttf
p179
sg21
g22
sbag1
(g8
g3
NtRp180
(dp181
g11
g17
sg13
S'Estrangelo Talada'
p182
sg15
I400
sg16
g17
sg18
g17
sg19
V/usr/X11/lib/X11/fonts/OTF/SyrCOMTalada.otf
p183
sg21
g22
sbag1
(g8
g3
NtRp184
(dp185
g11
g17
sg13
S'LiSong Pro'
p186
sg15
I400
sg16
g17
sg18
g17
sg19
V/Library/Fonts/\u5137\u5b8b Pro.ttf
p187
sg21
g22
sbag1
(g8
g3
NtRp188
(dp189
g11
g17
sg13
S'Source Code Pro for Powerline'
p190
sg15
I500
sg16
g17
sg18
g17
sg19
V/Users/uranus/.fonts/powerline-fonts/SourceCodePro/Sauce Code Powerline Medium.otf
p191
sg21
g22
sbag1
(g8
g3
NtRp192
(dp193
g11
g17
sg13
S'AppleMyungjo'
p194
sg15
I400
sg16
g17
sg18
g17
sg19
V/Library/Fonts/AppleMyungjo.ttf
p195
sg21
g22
sbag1
(g8
g3
NtRp196
(dp197
g11
g17
sg13
S'Mishafi Gold'
p198
sg15
I400
sg16
g17
sg18
g17
sg19
V/Library/Fonts/Mishafi Gold.ttf
p199
sg21
g22
sbag1
(g8
g3
NtRp200
(dp201
g11
g17
sg13
S'Source Code Pro for Powerline'
p202
sg15
I200
sg16
g17
sg18
g17
sg19
V/Users/uranus/Library/Fonts/Sauce Code Powerline ExtraLight.otf
p203
sg21
g22
sbag1
(g8
g3
NtRp204
(dp205
g11
g17
sg13
S'STIXSizeThreeSym'
p206
sg15
I700
sg16
g17
sg18
g17
sg19
V/Library/Fonts/STIXSizThreeSymBol.otf
p207
sg21
g22
sbag1
(g8
g3
NtRp208
(dp209
g11
g17
sg13
S'Kokonor'
p210
sg15
I400
sg16
g17
sg18
g17
sg19
V/Library/Fonts/Kokonor.ttf
p211
sg21
g22
sbag1
(g8
g3
NtRp212
(dp213
g11
g17
sg13
S'East Syriac Ctesiphon'
p214
sg15
I400
sg16
g17
sg18
g17
sg19
V/usr/X11/lib/X11/fonts/OTF/SyrCOMCtesiphon.otf
p215
sg21
g22
sbag1
(g8
g3
NtRp216
(dp217
g11
g17
sg13
S'Candara'
p218
sg15
I700
sg16
g17
sg18
g17
sg19
V/Library/Fonts/Microsoft/Candara Bold.ttf
p219
sg21
g22
sbag1
(g8
g3
NtRp220
(dp221
g11
g17
sg13
S'Tw Cen MT'
p222
sg15
I400
sg16
g17
sg18
g17
sg19
V/Library/Fonts/Microsoft/Tw Cen MT.ttf
p223
sg21
g22
sbag1
(g8
g3
NtRp224
(dp225
g11
g17
sg13
S'Corbel'
p226
sg15
I700
sg16
g17
sg18
g17
sg19
V/Library/Fonts/Microsoft/Corbel Bold.ttf
p227
sg21
g22
sbag1
(g8
g3
NtRp228
(dp229
g11
g17
sg13
S'Liberation Mono for Powerline'
p230
sg15
I400
sg16
g17
sg18
g17
sg19
V/Users/uranus/.fonts/powerline-fonts/LiberationMono/Literation Mono Powerline.ttf
p231
sg21
g22
sbag1
(g8
g3
NtRp232
(dp233
g11
g12
sg13
S'Arial'
p234
sg15
I700
sg16
g17
sg18
g17
sg19
V/Library/Fonts/Arial Bold Italic.ttf
p235
sg21
g22
sbag1
(g8
g3
NtRp236
(dp237
g11
g17
sg13
S'SignPainter'
p238
sg15
I400
sg16
g17
sg18
g17
sg19
V/Library/Fonts/SignPainter.otf
p239
sg21
g22
sbag1
(g8
g3
NtRp240
(dp241
g11
g17
sg13
S'Serto Batnan'
p242
sg15
I400
sg16
g17
sg18
g17
sg19
V/usr/X11/lib/X11/fonts/OTF/SyrCOMBatnan.otf
p243
sg21
g22
sbag1
(g8
g3
NtRp244
(dp245
g11
g17
sg13
S'System Font'
p246
sg15
I400
sg16
g17
sg18
g17
sg19
V/System/Library/Fonts/SFNSText-RegularG2.otf
p247
sg21
g22
sbag1
(g8
g3
NtRp248
(dp249
g11
g17
sg13
S'DejaVu Sans Mono for Powerline'
p250
sg15
I400
sg16
g17
sg18
g17
sg19
V/Users/uranus/Library/Fonts/DejaVu Sans Mono for Powerline.ttf
p251
sg21
g22
sbag1
(g8
g3
NtRp252
(dp253
g11
g17
sg13
S'Calibri'
p254
sg15
I200
sg16
g17
sg18
g17
sg19
V/Library/Fonts/Microsoft/Calibril.ttf
p255
sg21
g22
sbag1
(g8
g3
NtRp256
(dp257
g11
g17
sg13
S'STIXSizeFiveSym'
p258
sg15
I400
sg16
g17
sg18
g17
sg19
V/Library/Fonts/STIXSizFiveSymReg.otf
p259
sg21
g22
sbag1
(g8
g3
NtRp260
(dp261
g11
g12
sg13
S'Anonymous Pro for Powerline'
p262
sg15
I700
sg16
g17
sg18
g17
sg19
V/Users/uranus/Library/Fonts/Anonymice Powerline Bold Italic.ttf
p263
sg21
g22
sbag1
(g8
g3
NtRp264
(dp265
g11
g17
sg13
S'Meslo LG S DZ for Powerline'
p266
sg15
I400
sg16
g17
sg18
g17
sg19
V/Users/uranus/.fonts/powerline-fonts/Meslo/Meslo LG S DZ Regular for Powerline.otf
p267
sg21
g22
sbag1
(g8
g3
NtRp268
(dp269
g11
g17
sg13
S'Gurmukhi MT'
p270
sg15
I400
sg16
g17
sg18
g17
sg19
V/Library/Fonts/Gurmukhi.ttf
p271
sg21
g22
sbag1
(g8
g3
NtRp272
(dp273
g11
g17
sg13
S'YuGothic'
p274
sg15
I700
sg16
g17
sg18
g17
sg19
V/Library/Fonts/Yu Gothic Bold.otf
p275
sg21
g22
sbag1
(g8
g3
NtRp276
(dp277
g11
g17
sg13
S'Inconsolata-g for Powerline'
p278
sg15
I400
sg16
g17
sg18
g17
sg19
V/Users/uranus/Library/Fonts/Inconsolata-g for Powerline.otf
p279
sg21
g22
sbag1
(g8
g3
NtRp280
(dp281
g11
g12
sg13
S'Cambria'
p282
sg15
I400
sg16
g17
sg18
g17
sg19
V/Library/Fonts/Microsoft/Cambria Italic.ttf
p283
sg21
g22
sbag1
(g8
g3
NtRp284
(dp285
g11
g17
sg13
S'System Font'
p286
sg15
I400
sg16
g17
sg18
g17
sg19
V/System/Library/Fonts/SFNSDisplay-Light.otf
p287
sg21
g22
sbag1
(g8
g3
NtRp288
(dp289
g11
g12
sg13
S'Perpetua'
p290
sg15
I700
sg16
g17
sg18
g17
sg19
V/Library/Fonts/Microsoft/Perpetua Bold Italic.ttf
p291
sg21
g22
sbag1
(g8
g3
NtRp292
(dp293
g11
g17
sg13
S'Microsoft Tai Le'
p294
sg15
I700
sg16
g17
sg18
g17
sg19
V/Library/Fonts/Microsoft/TaiLeb.ttf
p295
sg21
g22
sbag1
(g8
g3
NtRp296
(dp297
g11
g17
sg13
S'Verdana'
p298
sg15
I700
sg16
g17
sg18
g17
sg19
V/Library/Fonts/Microsoft/Verdana Bold.ttf
p299
sg21
g22
sbag1
(g8
g3
NtRp300
(dp301
g11
g17
sg13
S'Verdana'
p302
sg15
I400
sg16
g17
sg18
g17
sg19
V/Library/Fonts/Microsoft/Verdana.ttf
p303
sg21
g22
sbag1
(g8
g3
NtRp304
(dp305
g11
g17
sg13
S'Franklin Gothic Medium'
p306
sg15
I500
sg16
g17
sg18
g17
sg19
V/Library/Fonts/Microsoft/Franklin Gothic Medium.ttf
p307
sg21
g22
sbag1
(g8
g3
NtRp308
(dp309
g11
g17
sg13
S'PCMyungjo'
p310
sg15
I400
sg16
g17
sg18
g17
sg19
V/Library/Fonts/PCmyoungjo.ttf
p311
sg21
g22
sbag1
(g8
g3
NtRp312
(dp313
g11
g17
sg13
S'MingLiU_HKSCS'
p314
sg15
I400
sg16
g17
sg18
g17
sg19
V/Library/Fonts/Microsoft/mingliu_hkscs.ttf
p315
sg21
g22
sbag1
(g8
g3
NtRp316
(dp317
g11
g12
sg13
S'Verdana'
p318
sg15
I700
sg16
g17
sg18
g17
sg19
V/Library/Fonts/Verdana Bold Italic.ttf
p319
sg21
g22
sbag1
(g8
g3
NtRp320
(dp321
g11
g17
sg13
S'Estrangelo Quenneshrin'
p322
sg15
I400
sg16
g17
sg18
g17
sg19
V/usr/X11/lib/X11/fonts/OTF/SyrCOMQenNeshrin.otf
p323
sg21
g22
sbag1
(g8
g3
NtRp324
(dp325
g11
g17
sg13
S'Serto Malankara'
p326
sg15
I400
sg16
g17
sg18
g17
sg19
V/usr/X11/lib/X11/fonts/OTF/SyrCOMMalankara.otf
p327
sg21
g22
sbag1
(g8
g3
NtRp328
(dp329
g11
g17
sg13
S'Estrangelo Edessa'
p330
sg15
I400
sg16
g17
sg18
g17
sg19
V/usr/X11/lib/X11/fonts/OTF/SyrCOMEdessa.otf
p331
sg21
g22
sbag1
(g8
g3
NtRp332
(dp333
g11
g17
sg13
S'Quicksand'
p334
sg15
I400
sg16
g17
sg18
g17
sg19
V/Users/uranus/Library/Fonts/Quicksand_Dash.otf
p335
sg21
g22
sbag1
(g8
g3
NtRp336
(dp337
g11
g17
sg13
S'Goha-Tibeb Zemen'
p338
sg15
I400
sg16
g17
sg18
g17
sg19
V/usr/X11/lib/X11/fonts/OTF/GohaTibebZemen.otf
p339
sg21
g22
sbag1
(g8
g3
NtRp340
(dp341
g11
g17
sg13
S'Apple Braille'
p342
sg15
I400
sg16
g17
sg18
g17
sg19
V/System/Library/Fonts/Apple Braille.ttf
p343
sg21
g22
sbag1
(g8
g3
NtRp344
(dp345
g11
g17
sg13
S'PowerlineSymbols'
p346
sg15
I400
sg16
g17
sg18
g17
sg19
V/Users/uranus/.fonts/PowerlineSymbols.otf
p347
sg21
g22
sbag1
(g8
g3
NtRp348
(dp349
g11
g17
sg13
S'Serto Mardin'
p350
sg15
I400
sg16
g17
sg18
g17
sg19
V/usr/X11/lib/X11/fonts/OTF/SyrCOMMardin.otf
p351
sg21
g22
sbag1
(g8
g3
NtRp352
(dp353
g11
g12
sg13
S'STIXNonUnicode'
p354
sg15
I400
sg16
g17
sg18
g17
sg19
V/Library/Fonts/STIXNonUniIta.otf
p355
sg21
g22
sbag1
(g8
g3
NtRp356
(dp357
g11
g17
sg13
S'MS Mincho'
p358
sg15
I400
sg16
g17
sg18
g17
sg19
V/Library/Fonts/Microsoft/MS Mincho.ttf
p359
sg21
g22
sbag1
(g8
g3
NtRp360
(dp361
g11
g17
sg13
S'Luxi Mono'
p362
sg15
I700
sg16
g17
sg18
g17
sg19
V/usr/X11R6/lib/X11/fonts/TTF/luximb.ttf
p363
sg21
g22
sbag1
(g8
g3
NtRp364
(dp365
g11
g17
sg13
S'Comic Sans MS'
p366
sg15
I700
sg16
g17
sg18
g17
sg19
V/Library/Fonts/Comic Sans MS Bold.ttf
p367
sg21
g22
sbag1
(g8
g3
NtRp368
(dp369
g11
g12
sg13
S'Quicksand'
p370
sg15
I400
sg16
g17
sg18
g17
sg19
V/Users/uranus/Library/Fonts/Quicksand-Italic.otf
p371
sg21
g22
sbag1
(g8
g3
NtRp372
(dp373
g11
g12
sg13
S'Quicksand'
p374
sg15
I200
sg16
g17
sg18
g17
sg19
V/Users/uranus/Library/Fonts/Quicksand-LightItalic.otf
p375
sg21
g22
sbag1
(g8
g3
NtRp376
(dp377
g11
g17
sg13
S'STIXNonUnicode'
p378
sg15
I700
sg16
g17
sg18
g17
sg19
V/Library/Fonts/STIXNonUniBol.otf
p379
sg21
g22
sbag1
(g8
g3
NtRp380
(dp381
g11
g17
sg13
S'Webdings'
p382
sg15
I400
sg16
g17
sg18
g17
sg19
V/Library/Fonts/Webdings.ttf
p383
sg21
g22
sbag1
(g8
g3
NtRp384
(dp385
g11
g17
sg13
S'Apple Braille'
p386
sg15
I400
sg16
g17
sg18
g17
sg19
V/System/Library/Fonts/Apple Braille Pinpoint 6 Dot.ttf
p387
sg21
g22
sbag1
(g8
g3
NtRp388
(dp389
g11
g17
sg13
S'Symbol'
p390
sg15
I400
sg16
g17
sg18
g17
sg19
V/System/Library/Fonts/Symbol.ttf
p391
sg21
g22
sbag1
(g8
g3
NtRp392
(dp393
g11
g17
sg13
S'STHeiti'
p394
sg15
I400
sg16
g17
sg18
g17
sg19
V/Library/Fonts/\u534e\u6587\u7ec6\u9ed1.ttf
p395
sg21
g22
sbag1
(g8
g3
NtRp396
(dp397
g11
g17
sg13
S'MingLiU_HKSCS-ExtB'
p398
sg15
I400
sg16
g17
sg18
g17
sg19
V/Library/Fonts/Microsoft/MingLiU_HKSCS-ExtB.ttf
p399
sg21
g22
sbag1
(g8
g3
NtRp400
(dp401
g11
g17
sg13
S'Luxi Serif'
p402
sg15
I400
sg16
g17
sg18
g17
sg19
V/usr/X11R6/lib/X11/fonts/TTF/luxirr.ttf
p403
sg21
g22
sbag1
(g8
g3
NtRp404
(dp405
g11
g12
sg13
S'Franklin Gothic Book'
p406
sg15
I400
sg16
g17
sg18
g17
sg19
V/Library/Fonts/Microsoft/Franklin Gothic Book Italic.ttf
p407
sg21
g22
sbag1
(g8
g3
NtRp408
(dp409
g11
g17
sg13
S'System Font'
p410
sg15
I400
sg16
g17
sg18
g17
sg19
V/System/Library/Fonts/SFNSText-RegularItalicG1.otf
p411
sg21
g22
sbag1
(g8
g3
NtRp412
(dp413
g11
g12
sg13
S'Palatino Linotype'
p414
sg15
I700
sg16
g17
sg18
g17
sg19
V/Library/Fonts/Microsoft/Palatino Linotype Bold Italic.ttf
p415
sg21
g22
sbag1
(g8
g3
NtRp416
(dp417
g11
g17
sg13
S'STIXIntegralsUpSm'
p418
sg15
I400
sg16
g17
sg18
g17
sg19
V/Library/Fonts/STIXIntUpSmReg.otf
p419
sg21
g22
sbag1
(g8
g3
NtRp420
(dp421
g11
g17
sg13
S'Meiryo'
p422
sg15
I400
sg16
g17
sg18
g17
sg19
V/Library/Fonts/Microsoft/Meiryo.ttf
p423
sg21
g22
sbag1
(g8
g3
NtRp424
(dp425
g11
g12
sg13
S'Courier New'
p426
sg15
I400
sg16
g17
sg18
g17
sg19
V/Library/Fonts/Courier New Italic.ttf
p427
sg21
g22
sbag1
(g8
g3
NtRp428
(dp429
g11
g17
sg13
S'Arial Black'
p430
sg15
I900
sg16
g17
sg18
g17
sg19
V/Library/Fonts/Arial Black.ttf
p431
sg21
g22
sbag1
(g8
g3
NtRp432
(dp433
g11
g12
sg13
S'STIXGeneral'
p434
sg15
I400
sg16
g17
sg18
g17
sg19
V/Library/Fonts/STIXGeneralItalic.otf
p435
sg21
g22
sbag1
(g8
g3
NtRp436
(dp437
g11
g17
sg13
S'STIXSizeFourSym'
p438
sg15
I400
sg16
g17
sg18
g17
sg19
V/Library/Fonts/STIXSizFourSymReg.otf
p439
sg21
g22
sbag1
(g8
g3
NtRp440
(dp441
g11
g17
sg13
S'Gill Sans MT'
p442
sg15
I400
sg16
g17
sg18
g17
sg19
V/Library/Fonts/Microsoft/Gill Sans MT.ttf
p443
sg21
g22
sbag1
(g8
g3
NtRp444
(dp445
g11
g17
sg13
S'Microsoft Yi Baiti'
p446
sg15
I400
sg16
g17
sg18
g17
sg19
V/Library/Fonts/Microsoft/msyi.ttf
p447
sg21
g22
sbag1
(g8
g3
NtRp448
(dp449
g11
g12
sg13
S'Times New Roman'
p450
sg15
I700
sg16
g17
sg18
g17
sg19
V/Library/Fonts/Microsoft/Times New Roman Bold Italic.ttf
p451
sg21
g22
sbag1
(g8
g3
NtRp452
(dp453
g11
g17
sg13
S'Wingdings 3'
p454
sg15
I400
sg16
g17
sg18
g17
sg19
V/Library/Fonts/Microsoft/Wingdings 3.ttf
p455
sg21
g22
sbag1
(g8
g3
NtRp456
(dp457
g11
g17
sg13
S'Consolas'
p458
sg15
I400
sg16
g17
sg18
g17
sg19
V/Library/Fonts/Microsoft/Consolas.ttf
p459
sg21
g22
sbag1
(g8
g3
NtRp460
(dp461
g11
g12
sg13
S'Perpetua'
p462
sg15
I400
sg16
g17
sg18
g17
sg19
V/Library/Fonts/Microsoft/Perpetua Italic.ttf
p463
sg21
g22
sbag1
(g8
g3
NtRp464
(dp465
g11
g12
sg13
S'Ubuntu Mono derivative Powerline'
p466
sg15
I400
sg16
g17
sg18
g17
sg19
V/Users/uranus/Library/Fonts/Ubuntu Mono derivative Powerline Italic.ttf
p467
sg21
g22
sbag1
(g8
g3
NtRp468
(dp469
g11
g17
sg13
S'Comic Sans MS'
p470
sg15
I400
sg16
g17
sg18
g17
sg19
V/Library/Fonts/Comic Sans MS.ttf
p471
sg21
g22
sbag1
(g8
g3
NtRp472
(dp473
g11
g17
sg13
S'PMingLiU'
p474
sg15
I400
sg16
g17
sg18
g17
sg19
V/Library/Fonts/Microsoft/PMingLiU.ttf
p475
sg21
g22
sbag1
(g8
g3
NtRp476
(dp477
g11
g17
sg13
S'Arial'
p478
sg15
I400
sg16
g17
sg18
g17
sg19
V/Library/Fonts/Microsoft/Arial.ttf
p479
sg21
g22
sbag1
(g8
g3
NtRp480
(dp481
g11
g17
sg13
S'STIXSizeFourSym'
p482
sg15
I700
sg16
g17
sg18
g17
sg19
V/Library/Fonts/STIXSizFourSymBol.otf
p483
sg21
g22
sbag1
(g8
g3
NtRp484
(dp485
g11
g17
sg13
S'Marlett'
p486
sg15
I400
sg16
g17
sg18
g17
sg19
V/Library/Fonts/Microsoft/Marlett.ttf
p487
sg21
g22
sbag1
(g8
g3
NtRp488
(dp489
g11
g17
sg13
S'Calibri'
p490
sg15
I700
sg16
g17
sg18
g17
sg19
V/Library/Fonts/Microsoft/Calibri Bold.ttf
p491
sg21
g22
sbag1
(g8
g3
NtRp492
(dp493
g11
g17
sg13
S'Anonymous Pro for Powerline'
p494
sg15
I400
sg16
g17
sg18
g17
sg19
V/Users/uranus/Library/Fonts/Anonymice Powerline.ttf
p495
sg21
g22
sbag1
(g8
g3
NtRp496
(dp497
g11
g17
sg13
S'Wingdings'
p498
sg15
I400
sg16
g17
sg18
g17
sg19
V/Library/Fonts/Wingdings.ttf
p499
sg21
g22
sbag1
(g8
g3
NtRp500
(dp501
g11
g17
sg13
S'Anonymous Pro for Powerline'
p502
sg15
I700
sg16
g17
sg18
g17
sg19
V/Users/uranus/Library/Fonts/Anonymice Powerline Bold.ttf
p503
sg21
g22
sbag1
(g8
g3
NtRp504
(dp505
g11
g17
sg13
S'Impact'
p506
sg15
I400
sg16
g17
sg18
g17
sg19
V/Library/Fonts/Impact.ttf
p507
sg21
g22
sbag1
(g8
g3
NtRp508
(dp509
g11
g17
sg13
S'Tahoma'
p510
sg15
I700
sg16
g17
sg18
g17
sg19
V/Library/Fonts/Tahoma Bold.ttf
p511
sg21
g22
sbag1
(g8
g3
NtRp512
(dp513
g11
g12
sg13
S'Georgia'
p514
sg15
I700
sg16
g17
sg18
g17
sg19
V/Library/Fonts/Georgia Bold Italic.ttf
p515
sg21
g22
sbag1
(g8
g3
NtRp516
(dp517
g11
g17
sg13
S'System Font'
p518
sg15
I400
sg16
g17
sg18
g17
sg19
V/System/Library/Fonts/SFNSDisplay-Heavy.otf
p519
sg21
g22
sbag1
(g8
g3
NtRp520
(dp521
g11
g33
sg13
S'Luxi Mono'
p522
sg15
I700
sg16
g17
sg18
g17
sg19
V/usr/X11/lib/X11/fonts/TTF/luximbi.ttf
p523
sg21
g22
sbag1
(g8
g3
NtRp524
(dp525
g11
g17
sg13
S'Hoefler Text'
p526
sg15
I400
sg16
g17
sg18
g17
sg19
V/Library/Fonts/Hoefler Text Ornaments.ttf
p527
sg21
g22
sbag1
(g8
g3
NtRp528
(dp529
g11
g17
sg13
S'System Font'
p530
sg15
I400
sg16
g17
sg18
g17
sg19
V/System/Library/Fonts/SFNSText-HeavyItalic.otf
p531
sg21
g22
sbag1
(g8
g3
NtRp532
(dp533
g11
g17
sg13
S'Estrangelo Nisibin'
p534
sg15
I400
sg16
g17
sg18
g17
sg19
V/usr/X11/lib/X11/fonts/OTF/SyrCOMNisibin.otf
p535
sg21
g22
sbag1
(g8
g3
NtRp536
(dp537
g11
g17
sg13
S'Meslo LG M for Powerline'
p538
sg15
I400
sg16
g17
sg18
g17
sg19
V/Users/uranus/.fonts/powerline-fonts/Meslo/Meslo LG M Regular for Powerline.otf
p539
sg21
g22
sbag1
(g8
g3
NtRp540
(dp541
g11
g17
sg13
S'System Font'
p542
sg15
I400
sg16
g17
sg18
g17
sg19
V/System/Library/Fonts/SFNSDisplay-Bold.otf
p543
sg21
g22
sbag1
(g8
g3
NtRp544
(dp545
g11
g17
sg13
S'PilGi'
p546
sg15
I400
sg16
g17
sg18
g17
sg19
V/Library/Fonts/Pilgiche.ttf
p547
sg21
g22
sbag1
(g8
g3
NtRp548
(dp549
g11
g12
sg13
S'Verdana'
p550
sg15
I400
sg16
g17
sg18
g17
sg19
V/Library/Fonts/Microsoft/Verdana Italic.ttf
p551
sg21
g22
sbag1
(g8
g3
NtRp552
(dp553
g11
g17
sg13
S'YuGothic'
p554
sg15
I500
sg16
g17
sg18
g17
sg19
V/Library/Fonts/Yu Gothic Medium.otf
p555
sg21
g22
sbag1
(g8
g3
NtRp556
(dp557
g11
g12
sg13
S'Arial'
p558
sg15
I400
sg16
g17
sg18
g17
sg19
V/Library/Fonts/Microsoft/Arial Italic.ttf
p559
sg21
g22
sbag1
(g8
g3
NtRp560
(dp561
g11
g33
sg13
S'Luxi Sans'
p562
sg15
I400
sg16
g17
sg18
g17
sg19
V/usr/X11/lib/X11/fonts/TTF/luxisri.ttf
p563
sg21
g22
sbag1
(g8
g3
NtRp564
(dp565
g11
g17
sg13
S'Zapf Dingbats'
p566
sg15
I400
sg16
g17
sg18
g17
sg19
V/System/Library/Fonts/ZapfDingbats.ttf
p567
sg21
g22
sbag1
(g8
g3
NtRp568
(dp569
g11
g12
sg13
S'Calibri'
p570
sg15
I700
sg16
g17
sg18
g17
sg19
V/Library/Fonts/Microsoft/Calibri Bold Italic.ttf
p571
sg21
g22
sbag1
(g8
g3
NtRp572
(dp573
g11
g17
sg13
S'System Font'
p574
sg15
I400
sg16
g17
sg18
g17
sg19
V/System/Library/Fonts/SFNSText-BoldItalicG2.otf
p575
sg21
g22
sbag1
(g8
g3
NtRp576
(dp577
g11
g17
sg13
S'Luminari'
p578
sg15
I400
sg16
g17
sg18
g17
sg19
V/Library/Fonts/Luminari.ttf
p579
sg21
g22
sbag1
(g8
g3
NtRp580
(dp581
g11
g12
sg13
S'Anonymous Pro for Powerline'
p582
sg15
I400
sg16
g17
sg18
g17
sg19
V/Users/uranus/Library/Fonts/Anonymice Powerline Italic.ttf
p583
sg21
g22
sbag1
(g8
g3
NtRp584
(dp585
g11
g12
sg13
S'Trebuchet MS'
p586
sg15
I700
sg16
g17
sg18
g17
sg19
V/Library/Fonts/Trebuchet MS Bold Italic.ttf
p587
sg21
g22
sbag1
(g8
g3
NtRp588
(dp589
g11
g17
sg13
S'STIXIntegralsSm'
p590
sg15
I700
sg16
g17
sg18
g17
sg19
V/Library/Fonts/STIXIntSmBol.otf
p591
sg21
g22
sbag1
(g8
g3
NtRp592
(dp593
g11
g17
sg13
S'Meiryo'
p594
sg15
I700
sg16
g17
sg18
g17
sg19
V/Library/Fonts/Microsoft/Meiryo Bold.ttf
p595
sg21
g22
sbag1
(g8
g3
NtRp596
(dp597
g11
g17
sg13
S'Bradley Hand'
p598
sg15
I700
sg16
g17
sg18
g17
sg19
V/Library/Fonts/Bradley Hand Bold.ttf
p599
sg21
g22
sbag1
(g8
g3
NtRp600
(dp601
g11
g17
sg13
S'Ubuntu Mono derivative Powerline'
p602
sg15
I700
sg16
g17
sg18
g17
sg19
V/Users/uranus/.fonts/powerline-fonts/UbuntuMono/Ubuntu Mono derivative Powerline Bold.ttf
p603
sg21
g22
sbag1
(g8
g3
NtRp604
(dp605
g11
g17
sg13
S'System Font'
p606
sg15
I400
sg16
g17
sg18
g17
sg19
V/System/Library/Fonts/SFNSText-Medium.otf
p607
sg21
g22
sbag1
(g8
g3
NtRp608
(dp609
g11
g12
sg13
S'Quicksand'
p610
sg15
I700
sg16
g17
sg18
g17
sg19
V/Users/uranus/Library/Fonts/Quicksand-BoldItalic.otf
p611
sg21
g22
sbag1
(g8
g3
NtRp612
(dp613
g11
g12
sg13
S'Tw Cen MT'
p614
sg15
I400
sg16
g17
sg18
g17
sg19
V/Library/Fonts/Microsoft/Tw Cen MT Italic.ttf
p615
sg21
g22
sbag1
(g8
g3
NtRp616
(dp617
g11
g17
sg13
S'Bookshelf Symbol 7'
p618
sg15
I400
sg16
g17
sg18
g17
sg19
V/Library/Fonts/Microsoft/Bookshelf Symbol 7.ttf
p619
sg21
g22
sbag1
(g8
g3
NtRp620
(dp621
g11
g17
sg13
S'Consolas'
p622
sg15
I700
sg16
g17
sg18
g17
sg19
V/Library/Fonts/Microsoft/Consolas Bold.ttf
p623
sg21
g22
sbag1
(g8
g3
NtRp624
(dp625
g11
g17
sg13
S'Ubuntu Mono derivative Powerline'
p626
sg15
I400
sg16
g17
sg18
g17
sg19
V/Users/uranus/.fonts/powerline-fonts/UbuntuMono/Ubuntu Mono derivative Powerline.ttf
p627
sg21
g22
sbag1
(g8
g3
NtRp628
(dp629
g11
g17
sg13
S'Inconsolata-dz for Powerline'
p630
sg15
I400
sg16
g17
sg18
g17
sg19
V/Users/uranus/Library/Fonts/Inconsolata-dz for Powerline.otf
p631
sg21
g22
sbag1
(g8
g3
NtRp632
(dp633
g11
g17
sg13
S'STZhongsong'
p634
sg15
I400
sg16
g17
sg18
g17
sg19
V/Library/Fonts/Microsoft/STZHONGS.ttf
p635
sg21
g22
sbag1
(g8
g3
NtRp636
(dp637
g11
g17
sg13
S'STFangsong'
p638
sg15
I400
sg16
g17
sg18
g17
sg19
V/Library/Fonts/\u534e\u6587\u4eff\u5b8b.ttf
p639
sg21
g22
sbag1
(g8
g3
NtRp640
(dp641
g11
g17
sg13
S'Luxi Serif'
p642
sg15
I700
sg16
g17
sg18
g17
sg19
V/usr/X11R6/lib/X11/fonts/TTF/luxirb.ttf
p643
sg21
g22
sbag1
(g8
g3
NtRp644
(dp645
g11
g12
sg13
S'Liberation Mono for Powerline'
p646
sg15
I700
sg16
g17
sg18
g17
sg19
V/Users/uranus/.fonts/powerline-fonts/LiberationMono/Literation Mono Powerline Bold Italic.ttf
p647
sg21
g22
sbag1
(g8
g3
NtRp648
(dp649
g11
g17
sg13
S'STHeiti'
p650
sg15
I400
sg16
g17
sg18
g17
sg19
V/Library/Fonts/\u534e\u6587\u9ed1\u4f53.ttf
p651
sg21
g22
sbag1
(g8
g3
NtRp652
(dp653
g11
g17
sg13
S'Quicksand'
p654
sg15
I200
sg16
g17
sg18
g17
sg19
V/Users/uranus/Library/Fonts/Quicksand-Light.otf
p655
sg21
g22
sbag1
(g8
g3
NtRp656
(dp657
g11
g17
sg13
S'Palatino Linotype'
p658
sg15
I400
sg16
g17
sg18
g17
sg19
V/Library/Fonts/Microsoft/Palatino Linotype.ttf
p659
sg21
g22
sbag1
(g8
g3
NtRp660
(dp661
g11
g17
sg13
S'Farisi'
p662
sg15
I400
sg16
g17
sg18
g17
sg19
V/Library/Fonts/Farisi.ttf
p663
sg21
g22
sbag1
(g8
g3
NtRp664
(dp665
g11
g17
sg13
S'Luxi Sans'
p666
sg15
I700
sg16
g17
sg18
g17
sg19
V/usr/X11/lib/X11/fonts/TTF/luxisb.ttf
p667
sg21
g22
sbag1
(g8
g3
NtRp668
(dp669
g11
g17
sg13
S'STIXNonUnicode'
p670
sg15
I400
sg16
g17
sg18
g17
sg19
V/Library/Fonts/STIXNonUni.otf
p671
sg21
g22
sbag1
(g8
g3
NtRp672
(dp673
g11
g17
sg13
S'Bodoni 72 Smallcaps'
p674
sg15
I400
sg16
g17
sg18
g17
sg19
V/Library/Fonts/Bodoni 72 Smallcaps Book.ttf
p675
sg21
g22
sbag1
(g8
g3
NtRp676
(dp677
g11
g17
sg13
S'System Font'
p678
sg15
I400
sg16
g17
sg18
g17
sg19
V/System/Library/Fonts/SFNSText-Bold.otf
p679
sg21
g22
sbag1
(g8
g3
NtRp680
(dp681
g11
g12
sg13
S'STIXNonUnicode'
p682
sg15
I700
sg16
g17
sg18
g17
sg19
V/Library/Fonts/STIXNonUniBolIta.otf
p683
sg21
g22
sbag1
(g8
g3
NtRp684
(dp685
g11
g17
sg13
S'Source Code Pro for Powerline'
p686
sg15
I700
sg16
g17
sg18
g17
sg19
V/Users/uranus/Library/Fonts/Sauce Code Powerline Bold.otf
p687
sg21
g22
sbag1
(g8
g3
NtRp688
(dp689
g11
g33
sg13
S'DejaVu Sans Mono for Powerline'
p690
sg15
I400
sg16
g17
sg18
g17
sg19
V/Users/uranus/.fonts/powerline-fonts/DejaVuSansMono/DejaVu Sans Mono Oblique for Powerline.ttf
p691
sg21
g22
sbag1
(g8
g3
NtRp692
(dp693
g11
g17
sg13
S'Wawati SC'
p694
sg15
I400
sg16
g17
sg18
g17
sg19
V/Library/Fonts/WawaSC-Regular.otf
p695
sg21
g22
sbag1
(g8
g3
NtRp696
(dp697
g11
g17
sg13
S'SimHei'
p698
sg15
I400
sg16
g17
sg18
g17
sg19
V/Library/Fonts/Microsoft/SimHei.ttf
p699
sg21
g22
sbag1
(g8
g3
NtRp700
(dp701
g11
g17
sg13
S'System Font'
p702
sg15
I400
sg16
g17
sg18
g17
sg19
V/System/Library/Fonts/SFNSText-Semibold.otf
p703
sg21
g22
sbag1
(g8
g3
NtRp704
(dp705
g11
g33
sg13
S'Luxi Serif'
p706
sg15
I700
sg16
g17
sg18
g17
sg19
V/usr/X11R6/lib/X11/fonts/TTF/luxirbi.ttf
p707
sg21
g22
sbag1
(g8
g3
NtRp708
(dp709
g11
g17
sg13
S'STIXIntegralsSm'
p710
sg15
I400
sg16
g17
sg18
g17
sg19
V/Library/Fonts/STIXIntSmReg.otf
p711
sg21
g22
sbag1
(g8
g3
NtRp712
(dp713
g11
g17
sg13
S'Georgia'
p714
sg15
I700
sg16
g17
sg18
g17
sg19
V/Library/Fonts/Georgia Bold.ttf
p715
sg21
g22
sbag1
(g8
g3
NtRp716
(dp717
g11
g17
sg13
S'Chalkduster'
p718
sg15
I400
sg16
g17
sg18
g17
sg19
V/Library/Fonts/Chalkduster.ttf
p719
sg21
g22
sbag1
(g8
g3
NtRp720
(dp721
g11
g17
sg13
S'Estrangelo Antioch'
p722
sg15
I400
sg16
g17
sg18
g17
sg19
V/usr/X11/lib/X11/fonts/OTF/SyrCOMAntioch.otf
p723
sg21
g22
sbag1
(g8
g3
NtRp724
(dp725
g11
g17
sg13
S'Weibei TC'
p726
sg15
I700
sg16
g17
sg18
g17
sg19
V/Library/Fonts/WeibeiTC-Bold.otf
p727
sg21
g22
sbag1
(g8
g3
NtRp728
(dp729
g11
g17
sg13
S'Serto Batnan'
p730
sg15
I700
sg16
g17
sg18
g17
sg19
V/usr/X11/lib/X11/fonts/OTF/SyrCOMBatnanBold.otf
p731
sg21
g22
sbag1
(g8
g3
NtRp732
(dp733
g11
g17
sg13
S'Serto Jerusalem'
p734
sg15
I700
sg16
g17
sg18
g17
sg19
V/usr/X11/lib/X11/fonts/OTF/SyrCOMJerusalemBold.otf
p735
sg21
g22
sbag1
(g8
g3
NtRp736
(dp737
g11
g17
sg13
S'STIXIntegralsUp'
p738
sg15
I400
sg16
g17
sg18
g17
sg19
V/Library/Fonts/STIXIntUpReg.otf
p739
sg21
g22
sbag1
(g8
g3
NtRp740
(dp741
g11
g17
sg13
S'Yuppy SC'
p742
sg15
I400
sg16
g17
sg18
g17
sg19
V/Library/Fonts/YuppySC-Regular.otf
p743
sg21
g22
sbag1
(g8
g3
NtRp744
(dp745
g11
g17
sg13
S'Big Caslon'
p746
sg15
I500
sg16
g17
sg18
g17
sg19
V/Library/Fonts/BigCaslon.ttf
p747
sg21
g22
sbag1
(g8
g3
NtRp748
(dp749
g11
g17
sg13
S'System Font'
p750
sg15
I400
sg16
g17
sg18
g17
sg19
V/System/Library/Fonts/SFNSText-Heavy.otf
p751
sg21
g22
sbag1
(g8
g3
NtRp752
(dp753
g11
g17
sg13
S'Ayuthaya'
p754
sg15
I400
sg16
g17
sg18
g17
sg19
V/Library/Fonts/Ayuthaya.ttf
p755
sg21
g22
sbag1
(g8
g3
NtRp756
(dp757
g11
g17
sg13
S'KaiTi'
p758
sg15
I400
sg16
g17
sg18
g17
sg19
V/Library/Fonts/Microsoft/Kaiti.ttf
p759
sg21
g22
sbag1
(g8
g3
NtRp760
(dp761
g11
g17
sg13
S'Wingdings 2'
p762
sg15
I400
sg16
g17
sg18
g17
sg19
V/Library/Fonts/Microsoft/Wingdings 2.ttf
p763
sg21
g22
sbag1
(g8
g3
NtRp764
(dp765
g11
g17
sg13
S'Andale Mono'
p766
sg15
I400
sg16
g17
sg18
g17
sg19
V/Library/Fonts/Andale Mono.ttf
p767
sg21
g22
sbag1
(g8
g3
NtRp768
(dp769
g11
g12
sg13
S'Consolas'
p770
sg15
I400
sg16
g17
sg18
g17
sg19
V/Library/Fonts/Microsoft/Consolas Italic.ttf
p771
sg21
g22
sbag1
(g8
g3
NtRp772
(dp773
g11
g17
sg13
S'Meslo LG S for Powerline'
p774
sg15
I400
sg16
g17
sg18
g17
sg19
V/Users/uranus/.fonts/powerline-fonts/Meslo/Meslo LG S Regular for Powerline.otf
p775
sg21
g22
sbag1
(g8
g3
NtRp776
(dp777
g11
g17
sg13
S'Silom'
p778
sg15
I400
sg16
g17
sg18
g17
sg19
V/Library/Fonts/Silom.ttf
p779
sg21
g22
sbag1
(g8
g3
NtRp780
(dp781
g11
g17
sg13
S'Weibei SC'
p782
sg15
I700
sg16
g17
sg18
g17
sg19
V/Library/Fonts/WeibeiSC-Bold.otf
p783
sg21
g22
sbag1
(g8
g3
NtRp784
(dp785
g11
g17
sg13
S'Source Code Pro for Powerline'
p786
sg15
I400
sg16
g17
sg18
g17
sg19
V/Users/uranus/Library/Fonts/Sauce Code Powerline Regular.otf
p787
sg21
g22
sbag1
(g8
g3
NtRp788
(dp789
g11
g17
sg13
S'Luxi Mono'
p790
sg15
I400
sg16
g17
sg18
g17
sg19
V/usr/X11/lib/X11/fonts/TTF/luximr.ttf
p791
sg21
g22
sbag1
(g8
g3
NtRp792
(dp793
g11
g12
sg13
S'Calibri'
p794
sg15
I400
sg16
g17
sg18
g17
sg19
V/Library/Fonts/Microsoft/Calibri Italic.ttf
p795
sg21
g22
sbag1
(g8
g3
NtRp796
(dp797
g11
g17
sg13
S'Candara'
p798
sg15
I400
sg16
g17
sg18
g17
sg19
V/Library/Fonts/Microsoft/Candara.ttf
p799
sg21
g22
sbag1
(g8
g3
NtRp800
(dp801
g11
g17
sg13
S'MingLiU'
p802
sg15
I400
sg16
g17
sg18
g17
sg19
V/Library/Fonts/Microsoft/MingLiU.ttf
p803
sg21
g22
sbag1
(g8
g3
NtRp804
(dp805
g11
g17
sg13
S'Gulim'
p806
sg15
I400
sg16
g17
sg18
g17
sg19
V/Library/Fonts/Microsoft/Gulim.ttf
p807
sg21
g22
sbag1
(g8
g3
NtRp808
(dp809
g11
g17
sg13
S'Arial'
p810
sg15
I700
sg16
g17
sg18
g17
sg19
V/Library/Fonts/Microsoft/Arial Bold.ttf
p811
sg21
g22
sbag1
(g8
g3
NtRp812
(dp813
g11
g17
sg13
S'Lao Sangam MN'
p814
sg15
I400
sg16
g17
sg18
g17
sg19
V/Library/Fonts/Lao Sangam MN.ttf
p815
sg21
g22
sbag1
(g8
g3
NtRp816
(dp817
g11
g17
sg13
S'Goha-Tibeb Zemen'
p818
sg15
I400
sg16
g17
sg18
g17
sg19
V/usr/X11R6/lib/X11/fonts/TTF/GohaTibebZemen.ttf
p819
sg21
g22
sbag1
(g8
g3
NtRp820
(dp821
g11
g17
sg13
S'Estrangelo Nisibin Outline'
p822
sg15
I400
sg16
g17
sg18
g17
sg19
V/usr/X11/lib/X11/fonts/OTF/SyrCOMNisibinOutline.otf
p823
sg21
g22
sbag1
(g8
g3
NtRp824
(dp825
g11
g17
sg13
S'Bodoni Ornaments'
p826
sg15
I400
sg16
g17
sg18
g17
sg19
V/Library/Fonts/Bodoni Ornaments.ttf
p827
sg21
g22
sbag1
(g8
g3
NtRp828
(dp829
g11
g12
sg13
S'Cambria'
p830
sg15
I700
sg16
g17
sg18
g17
sg19
V/Library/Fonts/Microsoft/Cambria Bold Italic.ttf
p831
sg21
g22
sbag1
(g8
g3
NtRp832
(dp833
g11
g17
sg13
S'Gabriola'
p834
sg15
I400
sg16
g17
sg18
g17
sg19
V/Library/Fonts/Microsoft/Gabriola.ttf
p835
sg21
g22
sbag1
(g8
g3
NtRp836
(dp837
g11
g17
sg13
S'Plantagenet Cherokee'
p838
sg15
I400
sg16
g17
sg18
g17
sg19
V/Library/Fonts/PlantagenetCherokee.ttf
p839
sg21
g22
sbag1
(g8
g3
NtRp840
(dp841
g11
g17
sg13
S'Droid Sans Mono for Powerline'
p842
sg15
I400
sg16
g17
sg18
g17
sg19
V/Users/uranus/.fonts/powerline-fonts/DroidSansMono/Droid Sans Mono for Powerline.otf
p843
sg21
g22
sbag1
(g8
g3
NtRp844
(dp845
g11
g33
sg13
S'DejaVu Sans Mono for Powerline'
p846
sg15
I700
sg16
g17
sg18
g17
sg19
V/Users/uranus/Library/Fonts/DejaVu Sans Mono Bold Oblique for Powerline.ttf
p847
sg21
g22
sbag1
(g8
g3
NtRp848
(dp849
g11
g17
sg13
S'Source Code Pro for Powerline'
p850
sg15
I900
sg16
g17
sg18
g17
sg19
V/Users/uranus/Library/Fonts/Sauce Code Powerline Black.otf
p851
sg21
g22
sbag1
(g8
g3
NtRp852
(dp853
g11
g17
sg13
S'STIXSizeThreeSym'
p854
sg15
I400
sg16
g17
sg18
g17
sg19
V/Library/Fonts/STIXSizThreeSymReg.otf
p855
sg21
g22
sbag1
(g8
g3
NtRp856
(dp857
g11
g17
sg13
S'DIN Condensed'
p858
sg15
I700
sg16
Vcondensed
p859
sg18
g17
sg19
V/Library/Fonts/DIN Condensed Bold.ttf
p860
sg21
g22
sbag1
(g8
g3
NtRp861
(dp862
g11
g33
sg13
S'Luxi Serif'
p863
sg15
I400
sg16
g17
sg18
g17
sg19
V/usr/X11R6/lib/X11/fonts/TTF/luxirri.ttf
p864
sg21
g22
sbag1
(g8
g3
NtRp865
(dp866
g11
g17
sg13
S'Microsoft Himalaya'
p867
sg15
I400
sg16
g17
sg18
g17
sg19
V/Library/Fonts/Microsoft/himalaya.ttf
p868
sg21
g22
sbag1
(g8
g3
NtRp869
(dp870
g11
g17
sg13
S'AppleGothic'
p871
sg15
I400
sg16
g17
sg18
g17
sg19
V/Library/Fonts/AppleGothic.ttf
p872
sg21
g22
sbag1
(g8
g3
NtRp873
(dp874
g11
g17
sg13
S'Arial Narrow'
p875
sg15
I400
sg16
g859
sg18
g17
sg19
V/Library/Fonts/Arial Narrow.ttf
p876
sg21
g22
sbag1
(g8
g3
NtRp877
(dp878
g11
g12
sg13
S'Times New Roman'
p879
sg15
I500
sg16
g17
sg18
g17
sg19
V/Library/Fonts/Microsoft/Times New Roman Italic.ttf
p880
sg21
g22
sbag1
(g8
g3
NtRp881
(dp882
g11
g17
sg13
S'PMingLiU-ExtB'
p883
sg15
I400
sg16
g17
sg18
g17
sg19
V/Library/Fonts/Microsoft/PMingLiU-ExtB.ttf
p884
sg21
g22
sbag1
(g8
g3
NtRp885
(dp886
g11
g33
sg13
S'Luxi Mono'
p887
sg15
I400
sg16
g17
sg18
g17
sg19
V/usr/X11/lib/X11/fonts/TTF/luximri.ttf
p888
sg21
g22
sbag1
(g8
g3
NtRp889
(dp890
g11
g17
sg13
S'FontAwesome'
p891
sg15
I400
sg16
g17
sg18
g17
sg19
V/Users/uranus/Library/Fonts/FontAwesome.otf
p892
sg21
g22
sbag1
(g8
g3
NtRp893
(dp894
g11
g17
sg13
S'System Font'
p895
sg15
I400
sg16
g17
sg18
g17
sg19
V/System/Library/Fonts/SFNSText-Regular.otf
p896
sg21
g22
sbag1
(g8
g3
NtRp897
(dp898
g11
g17
sg13
S'Serto Mardin'
p899
sg15
I700
sg16
g17
sg18
g17
sg19
V/usr/X11/lib/X11/fonts/OTF/SyrCOMMardinBold.otf
p900
sg21
g22
sbag1
(g8
g3
NtRp901
(dp902
g11
g17
sg13
S'Arial Narrow'
p903
sg15
I700
sg16
g859
sg18
g17
sg19
V/Library/Fonts/Arial Narrow Bold.ttf
p904
sg21
g22
sbag1
(g8
g3
NtRp905
(dp906
g11
g17
sg13
S'System Font'
p907
sg15
I400
sg16
g17
sg18
g17
sg19
V/System/Library/Fonts/SFNSText-RegularItalic.otf
p908
sg21
g22
sbag1
(g8
g3
NtRp909
(dp910
g11
g17
sg13
S'Georgia'
p911
sg15
I400
sg16
g17
sg18
g17
sg19
V/Library/Fonts/Georgia.ttf
p912
sg21
g22
sbag1
(g8
g3
NtRp913
(dp914
g11
g17
sg13
S'Trebuchet MS'
p915
sg15
I700
sg16
g17
sg18
g17
sg19
V/Library/Fonts/Trebuchet MS Bold.ttf
p916
sg21
g22
sbag1
(g8
g3
NtRp917
(dp918
g11
g17
sg13
S'Constantia'
p919
sg15
I700
sg16
g17
sg18
g17
sg19
V/Library/Fonts/Microsoft/Constantia Bold.ttf
p920
sg21
g22
sbag1
(g8
g3
NtRp921
(dp922
g11
g17
sg13
S'STXingkai'
p923
sg15
I400
sg16
g17
sg18
g17
sg19
V/Library/Fonts/Microsoft/STXINGKA.ttf
p924
sg21
g22
sbag1
(g8
g3
NtRp925
(dp926
g11
g12
sg13
S'Arial Narrow'
p927
sg15
I400
sg16
g859
sg18
g17
sg19
V/Library/Fonts/Arial Narrow Italic.ttf
p928
sg21
g22
sbag1
(g8
g3
NtRp929
(dp930
g11
g17
sg13
S'Source Code Pro for Powerline'
p931
sg15
I700
sg16
g17
sg18
g17
sg19
V/Users/uranus/Library/Fonts/Sauce Code Powerline Semibold.otf
p932
sg21
g22
sbag1
(g8
g3
NtRp933
(dp934
g11
g17
sg13
S'Tw Cen MT'
p935
sg15
I700
sg16
g17
sg18
g17
sg19
V/Library/Fonts/Microsoft/Tw Cen MT Bold.ttf
p936
sg21
g22
sbag1
(g8
g3
NtRp937
(dp938
g11
g17
sg13
S'System Font'
p939
sg15
I400
sg16
g17
sg18
g17
sg19
V/System/Library/Fonts/SFNSDisplay-Semibold.otf
p940
sg21
g22
sbag1
(g8
g3
NtRp941
(dp942
g11
g12
sg13
S'Brush Script MT'
p943
sg15
I400
sg16
g17
sg18
g17
sg19
V/Library/Fonts/Microsoft/Brush Script.ttf
p944
sg21
g22
sbag1
(g8
g3
NtRp945
(dp946
g11
g12
sg13
S'Tw Cen MT'
p947
sg15
I700
sg16
g17
sg18
g17
sg19
V/Library/Fonts/Microsoft/Tw Cen MT Bold Italic.ttf
p948
sg21
g22
sbag1
(g8
g3
NtRp949
(dp950
g11
g17
sg13
S'STIXVariants'
p951
sg15
I400
sg16
g17
sg18
g17
sg19
V/Library/Fonts/STIXVar.otf
p952
sg21
g22
sbag1
(g8
g3
NtRp953
(dp954
g11
g17
sg13
S'Mishafi'
p955
sg15
I400
sg16
g17
sg18
g17
sg19
V/Library/Fonts/Mishafi.ttf
p956
sg21
g22
sbag1
(g8
g3
NtRp957
(dp958
g11
g12
sg13
S'Candara'
p959
sg15
I700
sg16
g17
sg18
g17
sg19
V/Library/Fonts/Microsoft/Candara Bold Italic.ttf
p960
sg21
g22
sbag1
(g8
g3
NtRp961
(dp962
g11
g17
sg13
S'System Font'
p963
sg15
I400
sg16
g17
sg18
g17
sg19
V/System/Library/Fonts/SFNSText-BoldItalic.otf
p964
sg21
g22
sbag1
(g8
g3
NtRp965
(dp966
g11
g17
sg13
S'System Font'
p967
sg15
I400
sg16
g17
sg18
g17
sg19
V/System/Library/Fonts/SFNSText-BoldItalicG1.otf
p968
sg21
g22
sbag1
(g8
g3
NtRp969
(dp970
g11
g17
sg13
S'Microsoft YaHei'
p971
sg15
I400
sg16
g17
sg18
g17
sg19
V/Library/Fonts/Microsoft/Microsoft Yahei.ttf
p972
sg21
g22
sbag1
(g8
g3
NtRp973
(dp974
g11
g17
sg13
S'Cambria Math'
p975
sg15
I400
sg16
g17
sg18
g17
sg19
V/Library/Fonts/Microsoft/Cambria Math.ttf
p976
sg21
g22
sbag1
(g8
g3
NtRp977
(dp978
g11
g12
sg13
S'Ubuntu Mono derivative Powerline'
p979
sg15
I700
sg16
g17
sg18
g17
sg19
V/Users/uranus/.fonts/powerline-fonts/UbuntuMono/Ubuntu Mono derivative Powerline Bold Italic.ttf
p980
sg21
g22
sbag1
(g8
g3
NtRp981
(dp982
g11
g17
sg13
S'Skia'
p983
sg15
I400
sg16
g17
sg18
g17
sg19
V/Library/Fonts/Skia.ttf
p984
sg21
g22
sbag1
(g8
g3
NtRp985
(dp986
g11
g33
sg13
S'Luxi Sans'
p987
sg15
I700
sg16
g17
sg18
g17
sg19
V/usr/X11R6/lib/X11/fonts/TTF/luxisbi.ttf
p988
sg21
g22
sbag1
(g8
g3
NtRp989
(dp990
g11
g17
sg13
S'Meslo LG M DZ for Powerline'
p991
sg15
I400
sg16
g17
sg18
g17
sg19
V/Users/uranus/.fonts/powerline-fonts/Meslo/Meslo LG M DZ Regular for Powerline.otf
p992
sg21
g22
sbag1
(g8
g3
NtRp993
(dp994
g11
g17
sg13
S'DejaVu Sans Mono for Powerline'
p995
sg15
I700
sg16
g17
sg18
g17
sg19
V/Users/uranus/.fonts/powerline-fonts/DejaVuSansMono/DejaVu Sans Mono Bold for Powerline.ttf
p996
sg21
g22
sbag1
(g8
g3
NtRp997
(dp998
g11
g17
sg13
S'System Font'
p999
sg15
I400
sg16
g17
sg18
g17
sg19
V/System/Library/Fonts/SFNSText-RegularG3.otf
p1000
sg21
g22
sbag1
(g8
g3
NtRp1001
(dp1002
g11
g17
sg13
S'Luxi Sans'
p1003
sg15
I400
sg16
g17
sg18
g17
sg19
V/usr/X11/lib/X11/fonts/TTF/luxisr.ttf
p1004
sg21
g22
sbag1
(g8
g3
NtRp1005
(dp1006
g11
g17
sg13
S'Lucida Console'
p1007
sg15
I400
sg16
g17
sg18
g17
sg19
V/Library/Fonts/Microsoft/Lucida Console.ttf
p1008
sg21
g22
sbag1
(g8
g3
NtRp1009
(dp1010
g11
g17
sg13
S'Perpetua'
p1011
sg15
I400
sg16
g17
sg18
g17
sg19
V/Library/Fonts/Microsoft/Perpetua.ttf
p1012
sg21
g22
sbag1
(g8
g3
NtRp1013
(dp1014
g11
g17
sg13
S'Cambria'
p1015
sg15
I700
sg16
g17
sg18
g17
sg19
V/Library/Fonts/Microsoft/Cambria Bold.ttf
p1016
sg21
g22
sbag1
(g8
g3
NtRp1017
(dp1018
g11
g12
sg13
S'Courier New'
p1019
sg15
I700
sg16
g17
sg18
g17
sg19
V/Library/Fonts/Courier New Bold Italic.ttf
p1020
sg21
g22
sbag1
(g8
g3
NtRp1021
(dp1022
g11
g17
sg13
S'Arial Rounded MT Bold'
p1023
sg15
I700
sg16
g17
sg18
g17
sg19
V/Library/Fonts/Arial Rounded Bold.ttf
p1024
sg21
g22
sbag1
(g8
g3
NtRp1025
(dp1026
g11
g17
sg13
S'MingLiU-ExtB'
p1027
sg15
I400
sg16
g17
sg18
g17
sg19
V/Library/Fonts/Microsoft/MingLiU-ExtB.ttf
p1028
sg21
g22
sbag1
(g8
g3
NtRp1029
(dp1030
g11
g12
sg13
S'Franklin Gothic Medium'
p1031
sg15
I500
sg16
g17
sg18
g17
sg19
V/Library/Fonts/Microsoft/Franklin Gothic Medium Italic.ttf
p1032
sg21
g22
sbag1
(g8
g3
NtRp1033
(dp1034
g11
g17
sg13
S'System Font'
p1035
sg15
I400
sg16
g17
sg18
g17
sg19
V/System/Library/Fonts/SFNSText-BoldG2.otf
p1036
sg21
g22
sbag1
(g8
g3
NtRp1037
(dp1038
g11
g17
sg13
S'Khmer Sangam MN'
p1039
sg15
I400
sg16
g17
sg18
g17
sg19
V/Library/Fonts/Khmer Sangam MN.ttf
p1040
sg21
g22
sbag1
(g8
g3
NtRp1041
(dp1042
g11
g17
sg13
S'Serto Urhoy'
p1043
sg15
I700
sg16
g17
sg18
g17
sg19
V/usr/X11/lib/X11/fonts/OTF/SyrCOMUrhoyBold.otf
p1044
sg21
g22
sbag1
(g8
g3
NtRp1045
(dp1046
g11
g17
sg13
S'InaiMathi'
p1047
sg15
I400
sg16
g17
sg18
g17
sg19
V/Library/Fonts/InaiMathi.ttf
p1048
sg21
g22
sbag1
(g8
g3
NtRp1049
(dp1050
g11
g17
sg13
S'Cambria'
p1051
sg15
I400
sg16
g17
sg18
g17
sg19
V/Library/Fonts/Microsoft/Cambria.ttf
p1052
sg21
g22
sbag1
(g8
g3
NtRp1053
(dp1054
g11
g17
sg13
S'Perpetua'
p1055
sg15
I700
sg16
g17
sg18
g17
sg19
V/Library/Fonts/Microsoft/Perpetua Bold.ttf
p1056
sg21
g22
sbag1
(g8
g3
NtRp1057
(dp1058
g11
g17
sg13
S'Batang'
p1059
sg15
I400
sg16
g17
sg18
g17
sg19
V/Library/Fonts/Microsoft/Batang.ttf
p1060
sg21
g22
sbag1
(g8
g3
NtRp1061
(dp1062
g11
g17
sg13
S'HeadLineA'
p1063
sg15
I400
sg16
g17
sg18
g17
sg19
V/Library/Fonts/HeadlineA.ttf
p1064
sg21
g22
sbag1
(g8
g3
NtRp1065
(dp1066
g11
g17
sg13
S'.Keyboard'
p1067
sg15
I400
sg16
g17
sg18
g17
sg19
V/System/Library/Fonts/Keyboard.ttf
p1068
sg21
g22
sbag1
(g8
g3
NtRp1069
(dp1070
g11
g17
sg13
S'East Syriac Adiabene'
p1071
sg15
I400
sg16
g17
sg18
g17
sg19
V/usr/X11/lib/X11/fonts/OTF/SyrCOMAdiabene.otf
p1072
sg21
g22
sbag1
(g8
g3
NtRp1073
(dp1074
g11
g17
sg13
S'Lucida Sans Unicode'
p1075
sg15
I400
sg16
g17
sg18
g17
sg19
V/Library/Fonts/Microsoft/Lucida Sans Unicode.ttf
p1076
sg21
g22
sbag1
(g8
g3
NtRp1077
(dp1078
g11
g12
sg13
S'Consolas'
p1079
sg15
I700
sg16
g17
sg18
g17
sg19
V/Library/Fonts/Microsoft/Consolas Bold Italic.ttf
p1080
sg21
g22
sbag1
(g8
g3
NtRp1081
(dp1082
g11
g17
sg13
S'Microsoft Sans Serif'
p1083
sg15
I400
sg16
g17
sg18
g17
sg19
V/Library/Fonts/Microsoft Sans Serif.ttf
p1084
sg21
g22
sbag1
(g8
g3
NtRp1085
(dp1086
g11
g17
sg13
S'STIXIntegralsUpD'
p1087
sg15
I700
sg16
g17
sg18
g17
sg19
V/Library/Fonts/STIXIntUpDBol.otf
p1088
sg21
g22
sbag1
(g8
g3
NtRp1089
(dp1090
g11
g17
sg13
S'STIXGeneral'
p1091
sg15
I400
sg16
g17
sg18
g17
sg19
V/Library/Fonts/STIXGeneral.otf
p1092
sg21
g22
sbag1
(g8
g3
NtRp1093
(dp1094
g11
g17
sg13
S'Yuppy TC'
p1095
sg15
I400
sg16
g17
sg18
g17
sg19
V/Library/Fonts/YuppyTC-Regular.otf
p1096
sg21
g22
sbag1
(g8
g3
NtRp1097
(dp1098
g11
g17
sg13
S'System Font'
p1099
sg15
I400
sg16
g17
sg18
g17
sg19
V/System/Library/Fonts/SFNSDisplay-Thin.otf
p1100
sg21
g22
sbag1
(g8
g3
NtRp1101
(dp1102
g11
g17
sg13
S'Apple Chancery'
p1103
sg15
I400
sg16
g17
sg18
g17
sg19
V/Library/Fonts/Apple Chancery.ttf
p1104
sg21
g22
sbag1
(g8
g3
NtRp1105
(dp1106
g11
g17
sg13
S'STIXIntegralsUpSm'
p1107
sg15
I700
sg16
g17
sg18
g17
sg19
V/Library/Fonts/STIXIntUpSmBol.otf
p1108
sg21
g22
sbag1
(g8
g3
NtRp1109
(dp1110
g11
g17
sg13
S'STHupo'
p1111
sg15
I400
sg16
g17
sg18
g17
sg19
V/Library/Fonts/Microsoft/STHUPO.TTF
p1112
sg21
g22
sbag1
(g8
g3
NtRp1113
(dp1114
g11
g17
sg13
S'STIXSizeOneSym'
p1115
sg15
I700
sg16
g17
sg18
g17
sg19
V/Library/Fonts/STIXSizOneSymBol.otf
p1116
sg21
g22
sbag1
(g8
g3
NtRp1117
(dp1118
g11
g17
sg13
S'SimSun-ExtB'
p1119
sg15
I400
sg16
g17
sg18
g17
sg19
V/Library/Fonts/Microsoft/SimSun-ExtB.ttf
p1120
sg21
g22
sbag1
(g8
g3
NtRp1121
(dp1122
g11
g17
sg13
S'Meslo LG L for Powerline'
p1123
sg15
I400
sg16
g17
sg18
g17
sg19
V/Users/uranus/.fonts/powerline-fonts/Meslo/Meslo LG L Regular for Powerline.otf
p1124
sg21
g22
sbag1
(g8
g3
NtRp1125
(dp1126
g11
g17
sg13
S'STIXSizeTwoSym'
p1127
sg15
I400
sg16
g17
sg18
g17
sg19
V/Library/Fonts/STIXSizTwoSymReg.otf
p1128
sg21
g22
sbag1
(g8
g3
NtRp1129
(dp1130
g11
g17
sg13
S'MS PGothic'
p1131
sg15
I400
sg16
g17
sg18
g17
sg19
V/Library/Fonts/Microsoft/MS PGothic.ttf
p1132
sg21
g22
sbag1
(g8
g3
NtRp1133
(dp1134
g11
g17
sg13
S'System Font'
p1135
sg15
I400
sg16
g17
sg18
g17
sg19
V/System/Library/Fonts/SFNSText-BoldG3.otf
p1136
sg21
g22
sbag1
(g8
g3
NtRp1137
(dp1138
g11
g12
sg13
S'Serto Jerusalem'
p1139
sg15
I400
sg16
g17
sg18
g17
sg19
V/usr/X11/lib/X11/fonts/OTF/SyrCOMJerusalemItalic.otf
p1140
sg21
g22
sbag1
(g8
g3
NtRp1141
(dp1142
g11
g17
sg13
S'STIXIntegralsUpD'
p1143
sg15
I400
sg16
g17
sg18
g17
sg19
V/Library/Fonts/STIXIntUpDReg.otf
p1144
sg21
g22
sbag1
(g8
g3
NtRp1145
(dp1146
g11
g17
sg13
S'System Font'
p1147
sg15
I400
sg16
g17
sg18
g17
sg19
V/System/Library/Fonts/SFNSText-RegularG1.otf
p1148
sg21
g22
sbag1
(g8
g3
NtRp1149
(dp1150
g11
g12
sg13
S'Meiryo'
p1151
sg15
I700
sg16
g17
sg18
g17
sg19
V/Library/Fonts/Microsoft/Meiryo Bold Italic.ttf
p1152
sg21
g22
sbag1
(g8
g3
NtRp1153
(dp1154
g11
g12
sg13
S'Candara'
p1155
sg15
I400
sg16
g17
sg18
g17
sg19
V/Library/Fonts/Microsoft/Candara Italic.ttf
p1156
sg21
g22
sbag1
(g8
g3
NtRp1157
(dp1158
g11
g17
sg13
S'Liberation Mono for Powerline'
p1159
sg15
I700
sg16
g17
sg18
g17
sg19
V/Users/uranus/Library/Fonts/Literation Mono Powerline Bold.ttf
p1160
sg21
g22
sbag1
(g8
g3
NtRp1161
(dp1162
g11
g17
sg13
S'Arial Unicode MS'
p1163
sg15
I400
sg16
g17
sg18
g17
sg19
V/Library/Fonts/Arial Unicode.ttf
p1164
sg21
g22
sbag1
(g8
g3
NtRp1165
(dp1166
g11
g12
sg13
S'Corbel'
p1167
sg15
I700
sg16
g17
sg18
g17
sg19
V/Library/Fonts/Microsoft/Corbel Bold Italic.ttf
p1168
sg21
g22
sbag1
(g8
g3
NtRp1169
(dp1170
g11
g17
sg13
S'Times New Roman'
p1171
sg15
I700
sg16
g17
sg18
g17
sg19
V/Library/Fonts/Microsoft/Times New Roman Bold.ttf
p1172
sg21
g22
sbag1
(g8
g3
NtRp1173
(dp1174
g11
g17
sg13
S'Serto Jerusalem Outline'
p1175
sg15
I400
sg16
g17
sg18
g17
sg19
V/usr/X11/lib/X11/fonts/OTF/SyrCOMJerusalemOutline.otf
p1176
sg21
g22
sbag1
(g8
g3
NtRp1177
(dp1178
g11
g17
sg13
S'STIXIntegralsD'
p1179
sg15
I700
sg16
g17
sg18
g17
sg19
V/Library/Fonts/STIXIntDBol.otf
p1180
sg21
g22
sbag1
(g8
g3
NtRp1181
(dp1182
g11
g17
sg13
S'DIN Alternate'
p1183
sg15
I700
sg16
g17
sg18
g17
sg19
V/Library/Fonts/DIN Alternate Bold.ttf
p1184
sg21
g22
sbag1
(g8
g3
NtRp1185
(dp1186
g11
g17
sg13
S'FangSong'
p1187
sg15
I400
sg16
g17
sg18
g17
sg19
V/Library/Fonts/Microsoft/Fangsong.ttf
p1188
sg21
g22
sbag1
(g8
g3
NtRp1189
(dp1190
g11
g17
sg13
S'Courier New'
p1191
sg15
I400
sg16
g17
sg18
g17
sg19
V/Library/Fonts/Courier New.ttf
p1192
sg21
g22
sbag1
(g8
g3
NtRp1193
(dp1194
g11
g12
sg13
S'Arial Narrow'
p1195
sg15
I700
sg16
g859
sg18
g17
sg19
V/Library/Fonts/Arial Narrow Bold Italic.ttf
p1196
sg21
g22
sbag1
(g8
g3
NtRp1197
(dp1198
g11
g17
sg13
S'Serto Jerusalem'
p1199
sg15
I400
sg16
g17
sg18
g17
sg19
V/usr/X11/lib/X11/fonts/OTF/SyrCOMJerusalem.otf
p1200
sg21
g22
sbag1
(g8
g3
NtRp1201
(dp1202
g11
g17
sg13
S'Zapfino'
p1203
sg15
I400
sg16
g17
sg18
g17
sg19
V/Library/Fonts/Zapfino.ttf
p1204
sg21
g22
sbag1
(g8
g3
NtRp1205
(dp1206
g11
g17
sg13
S'Meslo LG L DZ for Powerline'
p1207
sg15
I400
sg16
g17
sg18
g17
sg19
V/Users/uranus/.fonts/powerline-fonts/Meslo/Meslo LG L DZ Regular for Powerline.otf
p1208
sg21
g22
sbag1
(g8
g3
NtRp1209
(dp1210
g11
g17
sg13
S'Krungthep'
p1211
sg15
I400
sg16
g17
sg18
g17
sg19
V/Library/Fonts/Krungthep.ttf
p1212
sg21
g22
sbag1
(g8
g3
NtRp1213
(dp1214
g11
g17
sg13
S'Mongolian Baiti'
p1215
sg15
I400
sg16
g17
sg18
g17
sg19
V/Library/Fonts/Microsoft/monbaiti.ttf
p1216
sg21
g22
sbag1
(g8
g3
NtRp1217
(dp1218
g11
g17
sg13
S'Diwan Thuluth'
p1219
sg15
I400
sg16
g17
sg18
g17
sg19
V/Library/Fonts/Diwan Thuluth.ttf
p1220
sg21
g22
sbag1
(g8
g3
NtRp1221
(dp1222
g11
g17
sg13
S'System Font'
p1223
sg15
I400
sg16
g17
sg18
g17
sg19
V/System/Library/Fonts/SFNSText-SemiboldItalic.otf
p1224
sg21
g22
sbag1
(g8
g3
NtRp1225
(dp1226
g11
g17
sg13
S'System Font'
p1227
sg15
I400
sg16
g17
sg18
g17
sg19
V/System/Library/Fonts/SFNSText-RegularItalicG3.otf
p1228
sg21
g22
sbag1
(g8
g3
NtRp1229
(dp1230
g11
g17
sg13
S'Estrangelo Midyat'
p1231
sg15
I400
sg16
g17
sg18
g17
sg19
V/usr/X11/lib/X11/fonts/OTF/SyrCOMMidyat.otf
p1232
sg21
g22
sbag1
(g8
g3
NtRp1233
(dp1234
g11
g17
sg13
S'Apple Braille'
p1235
sg15
I400
sg16
g17
sg18
g17
sg19
V/System/Library/Fonts/Apple Braille Outline 8 Dot.ttf
p1236
sg21
g22
sbag1
(g8
g3
NtRp1237
(dp1238
g11
g17
sg13
S'System Font'
p1239
sg15
I400
sg16
g17
sg18
g17
sg19
V/System/Library/Fonts/SFNSText-RegularItalicG2.otf
p1240
sg21
g22
sbag1
(g8
g3
NtRp1241
(dp1242
g11
g12
sg13
S'Corbel'
p1243
sg15
I400
sg16
g17
sg18
g17
sg19
V/Library/Fonts/Microsoft/Corbel Italic.ttf
p1244
sg21
g22
sbag1
(g8
g3
NtRp1245
(dp1246
g11
g17
sg13
S'Palatino Linotype'
p1247
sg15
I700
sg16
g17
sg18
g17
sg19
V/Library/Fonts/Microsoft/Palatino Linotype Bold.ttf
p1248
sg21
g22
sbag1
(g8
g3
NtRp1249
(dp1250
g11
g17
sg13
S'STIXVariants'
p1251
sg15
I700
sg16
g17
sg18
g17
sg19
V/Library/Fonts/STIXVarBol.otf
p1252
sg21
g22
sbag1
(g8
g3
NtRp1253
(dp1254
g11
g17
sg13
S'MS Gothic'
p1255
sg15
I400
sg16
g17
sg18
g17
sg19
V/Library/Fonts/Microsoft/MS Gothic.ttf
p1256
sg21
g22
sbag1
(g8
g3
NtRp1257
(dp1258
g11
g17
sg13
S'MS PMincho'
p1259
sg15
I400
sg16
g17
sg18
g17
sg19
V/Library/Fonts/Microsoft/MS PMincho.ttf
p1260
sg21
g22
sbag1
(g8
g3
NtRp1261
(dp1262
g11
g17
sg13
S'STIXIntegralsUp'
p1263
sg15
I700
sg16
g17
sg18
g17
sg19
V/Library/Fonts/STIXIntUpBol.otf
p1264
sg21
g22
sbag1
(g8
g3
NtRp1265
(dp1266
g11
g17
sg13
S'Wawati TC'
p1267
sg15
I400
sg16
g17
sg18
g17
sg19
V/Library/Fonts/WawaTC-Regular.otf
p1268
sg21
g22
sbag1
(g8
g3
NtRp1269
(dp1270
g11
g17
sg13
S'MS Reference Sans Serif'
p1271
sg15
I400
sg16
g17
sg18
g17
sg19
V/Library/Fonts/Microsoft/MS Reference Sans Serif.ttf
p1272
sg21
g22
sbag1
(g8
g3
NtRp1273
(dp1274
g11
g17
sg13
S'STIXSizeTwoSym'
p1275
sg15
I700
sg16
g17
sg18
g17
sg19
V/Library/Fonts/STIXSizTwoSymBol.otf
p1276
sg21
g22
sbag1
(g8
g3
NtRp1277
(dp1278
g11
g17
sg13
S'Corbel'
p1279
sg15
I400
sg16
g17
sg18
g17
sg19
V/Library/Fonts/Microsoft/Corbel.ttf
p1280
sg21
g22
sbag1
(g8
g3
NtRp1281
(dp1282
g11
g17
sg13
S'System Font'
p1283
sg15
I400
sg16
g17
sg18
g17
sg19
V/System/Library/Fonts/SFNSText-BoldG1.otf
p1284
sg21
g22
sbag1
(g8
g3
NtRp1285
(dp1286
g11
g17
sg13
S'Inconsolata for Powerline'
p1287
sg15
I400
sg16
g17
sg18
g17
sg19
V/Users/uranus/.fonts/powerline-fonts/Inconsolata/Inconsolata for Powerline.otf
p1288
sg21
g22
sbag1
(g8
g3
NtRp1289
(dp1290
g11
g17
sg13
S'SimSun'
p1291
sg15
I400
sg16
g17
sg18
g17
sg19
V/Library/Fonts/Microsoft/SimSun.ttf
p1292
sg21
g22
sbag1
(g8
g3
NtRp1293
(dp1294
g11
g12
sg13
S'Liberation Mono for Powerline'
p1295
sg15
I400
sg16
g17
sg18
g17
sg19
V/Users/uranus/.fonts/powerline-fonts/LiberationMono/Literation Mono Powerline Italic.ttf
p1296
sg21
g22
sbag1
(g8
g3
NtRp1297
(dp1298
g11
g17
sg13
S'Apple Braille'
p1299
sg15
I400
sg16
g17
sg18
g17
sg19
V/System/Library/Fonts/Apple Braille Pinpoint 8 Dot.ttf
p1300
sg21
g22
sbag1
(g8
g3
NtRp1301
(dp1302
g11
g12
sg13
S'Georgia'
p1303
sg15
I400
sg16
g17
sg18
g17
sg19
V/Library/Fonts/Georgia Italic.ttf
p1304
sg21
g22
sbag1
(g8
g3
NtRp1305
(dp1306
g11
g17
sg13
S'Apple Braille'
p1307
sg15
I400
sg16
g17
sg18
g17
sg19
V/System/Library/Fonts/Apple Braille Outline 6 Dot.ttf
p1308
sg21
g22
sbag1
(g8
g3
NtRp1309
(dp1310
g11
g12
sg13
S'Gill Sans MT'
p1311
sg15
I700
sg16
g17
sg18
g17
sg19
V/Library/Fonts/Microsoft/Gill Sans MT Bold Italic.ttf
p1312
sg21
g22
sbag1
(g8
g3
NtRp1313
(dp1314
g11
g17
sg13
S'Serto Kharput'
p1315
sg15
I400
sg16
g17
sg18
g17
sg19
V/usr/X11/lib/X11/fonts/OTF/SyrCOMKharput.otf
p1316
sg21
g22
sbag1
(g8
g3
NtRp1317
(dp1318
g11
g17
sg13
S'Constantia'
p1319
sg15
I400
sg16
g17
sg18
g17
sg19
V/Library/Fonts/Microsoft/Constantia.ttf
p1320
sg21
g22
sbag1
(g8
g3
NtRp1321
(dp1322
g11
g17
sg13
S'Calibri'
p1323
sg15
I400
sg16
g17
sg18
g17
sg19
V/Library/Fonts/Microsoft/Calibri.ttf
p1324
sg21
g22
sbag1
(g8
g3
NtRp1325
(dp1326
g11
g17
sg13
S'LiHei Pro'
p1327
sg15
I400
sg16
g17
sg18
g17
sg19
V/Library/Fonts/\u5137\u9ed1 Pro.ttf
p1328
sg21
g22
sbag1
(g8
g3
NtRp1329
(dp1330
g11
g17
sg13
S'System Font'
p1331
sg15
I400
sg16
g17
sg18
g17
sg19
V/System/Library/Fonts/SFNSText-LightItalic.otf
p1332
sg21
g22
sbag1
(g8
g3
NtRp1333
(dp1334
g11
g17
sg13
S'STIXGeneral'
p1335
sg15
I700
sg16
g17
sg18
g17
sg19
V/Library/Fonts/STIXGeneralBol.otf
p1336
sg21
g22
sbag1
(g8
g3
NtRp1337
(dp1338
g11
g17
sg13
S'STLiti'
p1339
sg15
I400
sg16
g17
sg18
g17
sg19
V/Library/Fonts/Microsoft/STLITI.ttf
p1340
sg21
g22
sbag1
(g8
g3
NtRp1341
(dp1342
g11
g17
sg13
S'System Font'
p1343
sg15
I400
sg16
g17
sg18
g17
sg19
V/System/Library/Fonts/SFNSText-Light.otf
p1344
sg21
g22
sbag1
(g8
g3
NtRp1345
(dp1346
g11
g17
sg13
S'System Font'
p1347
sg15
I400
sg16
g17
sg18
g17
sg19
V/System/Library/Fonts/SFNSDisplay-Ultralight.otf
p1348
sg21
g22
sbag1
(g8
g3
NtRp1349
(dp1350
g11
g12
sg13
S'Constantia'
p1351
sg15
I700
sg16
g17
sg18
g17
sg19
V/Library/Fonts/Microsoft/Constantia Bold Italic.ttf
p1352
sg21
g22
sbag1
(g8
g3
NtRp1353
(dp1354
g11
g17
sg13
S'Franklin Gothic Book'
p1355
sg15
I400
sg16
g17
sg18
g17
sg19
V/Library/Fonts/Microsoft/Franklin Gothic Book.ttf
p1356
sg21
g22
sbag1
(g8
g3
NtRp1357
(dp1358
g11
g17
sg13
S'STIXIntegralsD'
p1359
sg15
I400
sg16
g17
sg18
g17
sg19
V/Library/Fonts/STIXIntDReg.otf
p1360
sg21
g22
sbag1
(g8
g3
NtRp1361
(dp1362
g11
g12
sg13
S'STIXGeneral'
p1363
sg15
I700
sg16
g17
sg18
g17
sg19
V/Library/Fonts/STIXGeneralBolIta.otf
p1364
sg21
g22
sbag1
(g8
g3
NtRp1365
(dp1366
g11
g17
sg13
S'Trebuchet MS'
p1367
sg15
I400
sg16
g17
sg18
g17
sg19
V/Library/Fonts/Trebuchet MS.ttf
p1368
sg21
g22
sbag1
(g8
g3
NtRp1369
(dp1370
g11
g17
sg13
S'Courier New'
p1371
sg15
I700
sg16
g17
sg18
g17
sg19
V/Library/Fonts/Courier New Bold.ttf
p1372
sg21
g22
sbag1
(g8
g3
NtRp1373
(dp1374
g11
g17
sg13
S'Herculanum'
p1375
sg15
I400
sg16
g17
sg18
g17
sg19
V/Library/Fonts/Herculanum.ttf
p1376
sg21
g22
sbag1
(g8
g3
NtRp1377
(dp1378
g11
g17
sg13
S'System Font'
p1379
sg15
I400
sg16
g17
sg18
g17
sg19
V/System/Library/Fonts/SFNSDisplay-Medium.otf
p1380
sg21
g22
sbag1
(g8
g3
NtRp1381
(dp1382
g11
g17
sg13
S'System Font'
p1383
sg15
I400
sg16
g17
sg18
g17
sg19
V/System/Library/Fonts/SFNSText-MediumItalic.otf
p1384
sg21
g22
sbag1
(g8
g3
NtRp1385
(dp1386
g11
g17
sg13
S'Estrangelo TurAbdin'
p1387
sg15
I400
sg16
g17
sg18
g17
sg19
V/usr/X11/lib/X11/fonts/OTF/SyrCOMTurAbdin.otf
p1388
sg21
g22
sbag1
(g8
g3
NtRp1389
(dp1390
g11
g17
sg13
S'MS Reference Specialty'
p1391
sg15
I400
sg16
g17
sg18
g17
sg19
V/Library/Fonts/Microsoft/MS Reference Specialty.ttf
p1392
sg21
g22
sbag1
(g8
g3
NtRp1393
(dp1394
g11
g17
sg13
S'Tahoma'
p1395
sg15
I400
sg16
g17
sg18
g17
sg19
V/Library/Fonts/Tahoma.ttf
p1396
sg21
g22
sbag1
(g8
g3
NtRp1397
(dp1398
g11
g17
sg13
S'Gill Sans MT'
p1399
sg15
I700
sg16
g17
sg18
g17
sg19
V/Library/Fonts/Microsoft/Gill Sans MT Bold.ttf
p1400
sg21
g22
sbag1
(g8
g3
NtRp1401
(dp1402
g11
g12
sg13
S'Palatino Linotype'
p1403
sg15
I400
sg16
g17
sg18
g17
sg19
V/Library/Fonts/Microsoft/Palatino Linotype Italic.ttf
p1404
sg21
g22
sbag1
(g8
g3
NtRp1405
(dp1406
g11
g17
sg13
S'STIXSizeOneSym'
p1407
sg15
I400
sg16
g17
sg18
g17
sg19
V/Library/Fonts/STIXSizOneSymReg.otf
p1408
sg21
g22
sbag1
(g8
g3
NtRp1409
(dp1410
g11
g12
sg13
S'Constantia'
p1411
sg15
I400
sg16
g17
sg18
g17
sg19
V/Library/Fonts/Microsoft/Constantia Italic.ttf
p1412
sg21
g22
sbag1
(g8
g3
NtRp1413
(dp1414
g11
g17
sg13
S'System Font'
p1415
sg15
I400
sg16
g17
sg18
g17
sg19
V/System/Library/Fonts/SFNSDisplay-Black.otf
p1416
sg21
g22
sbag1
(g8
g3
NtRp1417
(dp1418
g11
g17
sg13
S'Microsoft Tai Le'
p1419
sg15
I400
sg16
g17
sg18
g17
sg19
V/Library/Fonts/Microsoft/taile.ttf
p1420
sg21
g22
sbag1
(g8
g3
NtRp1421
(dp1422
g11
g17
sg13
S'DFKai-SB'
p1423
sg15
I400
sg16
g17
sg18
g17
sg19
V/Users/uranus/Library/Fonts/kaiu.ttf
p1424
sg21
g22
sbag1
(g8
g3
NtRp1425
(dp1426
g11
g12
sg13
S'Meiryo'
p1427
sg15
I400
sg16
g17
sg18
g17
sg19
V/Library/Fonts/Microsoft/Meiryo Italic.ttf
p1428
sg21
g22
sbag1
(g8
g3
NtRp1429
(dp1430
g11
g17
sg13
S'Quicksand'
p1431
sg15
I400
sg16
g17
sg18
g17
sg19
V/Users/uranus/Library/Fonts/Quicksand-Regular.otf
p1432
sg21
g22
sbag1
(g8
g3
NtRp1433
(dp1434
g11
g17
sg13
S'FontAwesome'
p1435
sg15
I400
sg16
g17
sg18
g17
sg19
V/Users/uranus/Library/Fonts/fontawesome-webfont.ttf
p1436
sg21
g22
sbag1
(g8
g3
NtRp1437
(dp1438
g11
g17
sg13
S'Trattatello'
p1439
sg15
I400
sg16
g17
sg18
g17
sg19
V/Library/Fonts/Trattatello.ttf
p1440
sg21
g22
sbag1
(g8
g3
NtRp1441
(dp1442
g11
g17
sg13
S'STXinwei'
p1443
sg15
I400
sg16
g17
sg18
g17
sg19
V/Library/Fonts/Microsoft/STXINWEI.ttf
p1444
sg21
g22
sbag1
(g8
g3
NtRp1445
(dp1446
g11
g17
sg13
S'System Font'
p1447
sg15
I400
sg16
g17
sg18
g17
sg19
V/System/Library/Fonts/SFNSText-BoldItalicG3.otf
p1448
sg21
g22
sbag1
(g8
g3
NtRp1449
(dp1450
g11
g17
sg13
S'.LastResort'
p1451
sg15
I400
sg16
g17
sg18
g17
sg19
V/System/Library/Fonts/LastResort.ttf
p1452
sg21
g22
sbag1
(g8
g3
NtRp1453
(dp1454
g11
g17
sg13
S'Quicksand'
p1455
sg15
I700
sg16
g17
sg18
g17
sg19
V/Users/uranus/Library/Fonts/Quicksand-Bold.otf
p1456
sg21
g22
sbag1
(g8
g3
NtRp1457
(dp1458
g11
g17
sg13
S'Osaka'
p1459
sg15
I400
sg16
g17
sg18
g17
sg19
V/Library/Fonts/OsakaMono.ttf
p1460
sg21
g22
sbag1
(g8
g3
NtRp1461
(dp1462
g11
g17
sg13
S'GungSeo'
p1463
sg15
I400
sg16
g17
sg18
g17
sg19
V/Library/Fonts/Gungseouche.ttf
p1464
sg21
g22
sbag1
(g8
g3
NtRp1465
(dp1466
g11
g17
sg13
S'FZLiShu-S01S'
p1467
sg15
I400
sg16
g17
sg18
g17
sg19
V/Users/uranus/Library/Fonts/\u65b9\u6b63\u96b6\u4e66\u7b80\u4f53.ttf
p1468
sg21
g22
sbag1
(g8
g3
NtRp1469
(dp1470
g11
g17
sg13
S'Sathu'
p1471
sg15
I400
sg16
g17
sg18
g17
sg19
V/Library/Fonts/Sathu.ttf
p1472
sg21
g22
sbag1
(g8
g3
NtRp1473
(dp1474
g11
g17
sg13
S'System Font'
p1475
sg15
I400
sg16
g17
sg18
g17
sg19
V/System/Library/Fonts/SFNSDisplay-Regular.otf
p1476
sg21
g22
sbasS'defaultFamily'
p1477
(dp1478
Vafm
p1479
VHelvetica
p1480
sVttf
p1481
VBitstream Vera Sans
p1482
ssS'ttffiles'
p1483
(lp1484
g20
ag26
ag30
ag35
ag39
ag43
ag47
ag51
ag55
ag59
ag63
ag67
ag71
ag75
ag79
ag83
ag87
ag91
ag95
ag99
ag103
ag107
ag111
ag115
ag119
ag123
ag127
ag131
ag135
ag139
ag143
ag147
ag151
ag155
ag159
ag163
aV/usr/X11/lib/X11/fonts/TTF/VeraIt.ttf
p1485
ag167
ag171
ag175
ag179
ag183
ag187
ag191
aV/Library/Fonts/NISC18030.ttf
p1486
ag195
ag199
ag203
aV/usr/X11R6/lib/X11/fonts/TTF/Vera.ttf
p1487
aV/usr/X11R6/lib/X11/fonts/TTF/VeraMono.ttf
p1488
ag207
ag211
ag215
ag219
ag223
ag227
ag231
ag235
ag239
aV/Users/uranus/.fonts/powerline-fonts/SourceCodePro/Sauce Code Powerline Light.otf
p1489
ag243
ag247
ag251
aV/usr/X11/lib/X11/fonts/TTF/VeraMono.ttf
p1490
ag255
ag259
ag263
ag267
ag271
ag275
ag279
aV/System/Library/Fonts/Apple Color Emoji.ttf
p1491
ag283
ag287
ag291
ag295
ag299
ag303
ag307
ag311
ag315
ag319
ag323
ag327
ag331
ag335
ag339
ag343
ag347
ag351
ag355
ag359
ag363
ag367
ag371
ag375
ag379
ag383
ag387
ag391
aV/usr/X11/lib/X11/fonts/TTF/VeraSeBd.ttf
p1492
ag395
ag399
ag403
ag407
ag411
aV/usr/X11R6/lib/X11/fonts/TTF/VeraSeBd.ttf
p1493
ag415
ag419
ag423
ag427
ag431
aV/usr/X11/lib/X11/fonts/TTF/luxirr.ttf
p1494
ag435
aV/usr/X11R6/lib/X11/fonts/TTF/VeraBd.ttf
p1495
ag439
ag443
ag447
ag451
ag455
ag459
ag463
ag467
ag471
aV/Users/uranus/Library/Fonts/Sauce Code Powerline Medium.otf
p1496
ag475
ag479
ag483
ag487
ag491
ag495
ag499
ag503
ag507
ag511
ag515
ag519
aV/usr/X11R6/lib/X11/fonts/TTF/VeraMoBd.ttf
p1497
ag523
ag527
ag531
ag535
ag539
ag543
ag547
aV/Library/Fonts/Microsoft/Wingdings.ttf
p1498
ag551
ag555
aV/usr/X11/lib/X11/fonts/TTF/luximb.ttf
p1499
ag559
ag563
ag567
ag571
ag575
ag579
aV/Users/uranus/.fonts/powerline-fonts/UbuntuMono/Ubuntu Mono derivative Powerline Italic.ttf
p1500
ag583
ag587
ag591
ag595
ag599
ag603
ag607
ag611
ag615
ag619
ag623
ag627
aV/Users/uranus/.fonts/powerline-fonts/AnonymousPro/Anonymice Powerline Bold Italic.ttf
p1501
ag631
ag635
ag639
ag643
ag647
ag651
ag655
ag659
aV/Library/Fonts/Verdana.ttf
p1502
ag663
ag667
ag671
ag675
aV/Users/uranus/Library/Fonts/Literation Mono Powerline Bold Italic.ttf
p1503
ag679
aV/Library/Fonts/Arial Italic.ttf
p1504
ag683
ag687
ag691
ag695
ag699
ag703
ag707
ag711
aV/Library/Fonts/Verdana Italic.ttf
p1505
ag715
ag719
ag723
ag727
ag731
ag735
aV/usr/X11/lib/X11/fonts/TTF/VeraMoBI.ttf
p1506
ag739
ag743
ag747
ag751
ag755
aV/Library/Fonts/Microsoft/Arial Bold Italic.ttf
p1507
aV/Users/uranus/.fonts/powerline-fonts/InconsolataDz/Inconsolata-dz for Powerline.otf
p1508
ag759
ag763
ag767
ag771
ag775
ag779
ag783
aV/usr/X11R6/lib/X11/fonts/TTF/luxisri.ttf
p1509
ag787
ag791
ag795
ag799
ag803
ag807
ag811
ag815
ag819
aV/Users/uranus/.fonts/powerline-fonts/SourceCodePro/Sauce Code Powerline Regular.otf
p1510
ag823
ag827
ag831
ag835
ag839
aV/Users/uranus/.fonts/powerline-fonts/AnonymousPro/Anonymice Powerline Bold.ttf
p1511
ag843
aV/usr/X11R6/lib/X11/fonts/TTF/VeraBI.ttf
p1512
aV/Library/Fonts/Verdana Bold.ttf
p1513
ag847
ag851
ag855
ag860
ag864
ag868
aV/Library/Fonts/Arial.ttf
p1514
ag872
aV/Users/uranus/.fonts/powerline-fonts/Inconsolata-g/Inconsolata-g for Powerline.otf
p1515
ag876
ag880
aV/Library/Fonts/Microsoft/Times New Roman.ttf
p1516
ag884
ag888
aV/usr/X11R6/lib/X11/fonts/TTF/VeraMoIt.ttf
p1517
ag892
ag896
ag900
ag904
aV/Library/Fonts/Times New Roman Italic.ttf
p1518
ag908
ag912
ag916
ag920
ag924
aV/usr/X11/lib/X11/fonts/TTF/luxirb.ttf
p1519
aV/Users/uranus/.fonts/powerline-fonts/AnonymousPro/Anonymice Powerline.ttf
p1520
aV/Library/Fonts/Times New Roman Bold Italic.ttf
p1521
ag928
ag932
ag936
ag940
ag944
ag948
ag952
ag956
ag960
ag964
ag968
ag972
ag976
ag980
ag984
ag988
ag992
ag996
aV/Users/uranus/Library/Fonts/Ubuntu Mono derivative Powerline Bold Italic.ttf
p1522
ag1000
ag1004
ag1008
aV/usr/X11/lib/X11/fonts/TTF/VeraMoBd.ttf
p1523
ag1012
ag1016
ag1020
aV/usr/X11/lib/X11/fonts/TTF/VeraBd.ttf
p1524
aV/Users/uranus/Library/Fonts/DejaVu Sans Mono Oblique for Powerline.ttf
p1525
ag1024
ag1028
ag1032
ag1036
aV/usr/X11R6/lib/X11/fonts/TTF/VeraIt.ttf
p1526
ag1040
ag1044
ag1048
ag1052
ag1056
ag1060
aV/usr/X11/lib/X11/fonts/TTF/luxisbi.ttf
p1527
ag1064
aV/Users/uranus/.fonts/powerline-fonts/SourceCodePro/Sauce Code Powerline Black.otf
p1528
ag1068
ag1072
ag1076
aV/usr/X11R6/lib/X11/fonts/TTF/luximbi.ttf
p1529
ag1080
ag1084
ag1088
ag1092
aV/usr/X11R6/lib/X11/fonts/TTF/luxisb.ttf
p1530
aV/Library/Fonts/Microsoft/Verdana Bold Italic.ttf
p1531
aV/Users/uranus/.fonts/powerline-fonts/SourceCodePro/Sauce Code Powerline Bold.otf
p1532
ag1096
aV/Users/uranus/.fonts/powerline-fonts/DejaVuSansMono/DejaVu Sans Mono for Powerline.ttf
p1533
ag1100
ag1104
aV/usr/X11/lib/X11/fonts/TTF/Vera.ttf
p1534
ag1108
aV/Users/uranus/.fonts/powerline-fonts/AnonymousPro/Anonymice Powerline Italic.ttf
p1535
ag1112
aV/usr/X11R6/lib/X11/fonts/TTF/luxisr.ttf
p1536
ag1116
ag1120
ag1124
ag1128
aV/Library/Fonts/Arial Bold.ttf
p1537
ag1132
ag1136
ag1140
ag1144
ag1148
aV/usr/X11R6/lib/X11/fonts/TTF/luximri.ttf
p1538
ag1152
ag1156
ag1160
ag1164
aV/usr/X11/lib/X11/fonts/TTF/VeraSe.ttf
p1539
aV/usr/X11R6/lib/X11/fonts/TTF/VeraMoBI.ttf
p1540
ag1168
ag1172
ag1176
ag1180
ag1184
ag1188
ag1192
ag1196
ag1200
ag1204
ag1208
ag1212
ag1216
aV/usr/X11/lib/X11/fonts/TTF/VeraMoIt.ttf
p1541
ag1220
ag1224
aV/usr/X11R6/lib/X11/fonts/TTF/luximr.ttf
p1542
ag1228
ag1232
ag1236
aV/usr/X11R6/lib/X11/fonts/TTF/VeraSe.ttf
p1543
aV/Users/uranus/.fonts/powerline-fonts/SourceCodePro/Sauce Code Powerline ExtraLight.otf
p1544
ag1240
aV/Library/Fonts/Times New Roman Bold.ttf
p1545
ag1244
aV/usr/X11/lib/X11/fonts/TTF/GohaTibebZemen.ttf
p1546
ag1248
ag1252
ag1256
ag1260
ag1264
ag1268
ag1272
ag1276
ag1280
ag1284
aV/usr/X11/lib/X11/fonts/TTF/luxirbi.ttf
p1547
ag1288
ag1292
ag1296
aV/Users/uranus/Library/Fonts/Literation Mono Powerline.ttf
p1548
ag1300
ag1304
ag1308
ag1312
ag1316
ag1320
aV/Users/uranus/Library/Fonts/Droid Sans Mono for Powerline.otf
p1549
aV/usr/X11/lib/X11/fonts/TTF/luxirri.ttf
p1550
ag1324
ag1328
ag1332
aV/Users/uranus/Library/Fonts/DejaVu Sans Mono Bold for Powerline.ttf
p1551
ag1336
ag1340
ag1344
ag1348
ag1352
aV/Users/uranus/.fonts/powerline-fonts/LiberationMono/Literation Mono Powerline Bold.ttf
p1552
ag1356
ag1360
ag1364
ag1368
aV/usr/X11/lib/X11/fonts/TTF/VeraBI.ttf
p1553
ag1372
aV/Users/uranus/Library/Fonts/Ubuntu Mono derivative Powerline Bold.ttf
p1554
ag1376
ag1380
ag1384
ag1388
aV/Library/Fonts/Wingdings 2.ttf
p1555
ag1392
ag1396
aV/Library/Fonts/Brush Script.ttf
p1556
ag1400
ag1404
ag1408
ag1412
aV/Users/uranus/Library/Fonts/PowerlineSymbols.otf
p1557
aV/Users/uranus/.fonts/powerline-fonts/DejaVuSansMono/DejaVu Sans Mono Bold Oblique for Powerline.ttf
p1558
ag1416
aV/Users/uranus/.fonts/powerline-fonts/SourceCodePro/Sauce Code Powerline Semibold.otf
p1559
aV/Users/uranus/Library/Fonts/Literation Mono Powerline Italic.ttf
p1560
ag1420
ag1424
ag1428
ag1432
ag1436
ag1440
ag1444
ag1448
aV/Users/uranus/Library/Fonts/Ubuntu Mono derivative Powerline.ttf
p1561
ag1452
ag1456
ag1460
ag1464
ag1468
aV/Library/Fonts/Wingdings 3.ttf
p1562
ag1472
ag1476
asS'_FontManager__default_weight'
p1563
Vnormal
p1564
sS'_version'
p1565
I101
sS'default_size'
p1566
NsS'defaultFont'
p1567
(dp1568
g1479
V/Users/uranus/anaconda/lib/python2.7/site-packages/matplotlib/mpl-data/fonts/pdfcorefonts/Courier.afm
p1569
sg1481
g67
ssS'afmfiles'
p1570
(lp1571
g1569
aV/Users/uranus/anaconda/lib/python2.7/site-packages/matplotlib/mpl-data/fonts/afm/ptmri8a.afm
p1572
aV/Users/uranus/anaconda/lib/python2.7/site-packages/matplotlib/mpl-data/fonts/afm/pplbi8a.afm
p1573
aV/Users/uranus/anaconda/lib/python2.7/site-packages/matplotlib/mpl-data/fonts/afm/pcrr8a.afm
p1574
aV/Users/uranus/anaconda/lib/python2.7/site-packages/matplotlib/mpl-data/fonts/pdfcorefonts/Helvetica-BoldOblique.afm
p1575
aV/Users/uranus/anaconda/lib/python2.7/site-packages/matplotlib/mpl-data/fonts/afm/cmtt10.afm
p1576
aV/Users/uranus/anaconda/lib/python2.7/site-packages/matplotlib/mpl-data/fonts/afm/putri8a.afm
p1577
aV/Users/uranus/anaconda/lib/python2.7/site-packages/matplotlib/mpl-data/fonts/pdfcorefonts/Times-BoldItalic.afm
p1578
aV/Users/uranus/anaconda/lib/python2.7/site-packages/matplotlib/mpl-data/fonts/afm/phvro8a.afm
p1579
aV/Users/uranus/anaconda/lib/python2.7/site-packages/matplotlib/mpl-data/fonts/afm/phvb8an.afm
p1580
aV/Users/uranus/anaconda/lib/python2.7/site-packages/matplotlib/mpl-data/fonts/afm/phvlo8a.afm
p1581
aV/Users/uranus/anaconda/lib/python2.7/site-packages/matplotlib/mpl-data/fonts/afm/putb8a.afm
p1582
aV/Users/uranus/anaconda/lib/python2.7/site-packages/matplotlib/mpl-data/fonts/afm/pzcmi8a.afm
p1583
aV/Users/uranus/anaconda/lib/python2.7/site-packages/matplotlib/mpl-data/fonts/pdfcorefonts/Times-Roman.afm
p1584
aV/Users/uranus/anaconda/lib/python2.7/site-packages/matplotlib/mpl-data/fonts/afm/pbkdi8a.afm
p1585
aV/Users/uranus/anaconda/lib/python2.7/site-packages/matplotlib/mpl-data/fonts/pdfcorefonts/Courier-BoldOblique.afm
p1586
aV/Users/uranus/anaconda/lib/python2.7/site-packages/matplotlib/mpl-data/fonts/afm/phvl8a.afm
p1587
aV/Users/uranus/anaconda/lib/python2.7/site-packages/matplotlib/mpl-data/fonts/afm/pncb8a.afm
p1588
aV/Users/uranus/anaconda/lib/python2.7/site-packages/matplotlib/mpl-data/fonts/afm/phvr8an.afm
p1589
aV/Users/uranus/anaconda/lib/python2.7/site-packages/matplotlib/mpl-data/fonts/afm/cmmi10.afm
p1590
aV/Users/uranus/anaconda/lib/python2.7/site-packages/matplotlib/mpl-data/fonts/afm/pagk8a.afm
p1591
aV/Users/uranus/anaconda/lib/python2.7/site-packages/matplotlib/mpl-data/fonts/afm/phvb8a.afm
p1592
aV/Users/uranus/anaconda/lib/python2.7/site-packages/matplotlib/mpl-data/fonts/afm/pncbi8a.afm
p1593
aV/Users/uranus/anaconda/lib/python2.7/site-packages/matplotlib/mpl-data/fonts/afm/pagdo8a.afm
p1594
aV/Users/uranus/anaconda/lib/python2.7/site-packages/matplotlib/mpl-data/fonts/afm/ptmb8a.afm
p1595
aV/Users/uranus/anaconda/lib/python2.7/site-packages/matplotlib/mpl-data/fonts/pdfcorefonts/Times-Bold.afm
p1596
aV/Users/uranus/anaconda/lib/python2.7/site-packages/matplotlib/mpl-data/fonts/afm/ptmbi8a.afm
p1597
aV/Users/uranus/anaconda/lib/python2.7/site-packages/matplotlib/mpl-data/fonts/afm/pncr8a.afm
p1598
aV/Users/uranus/anaconda/lib/python2.7/site-packages/matplotlib/mpl-data/fonts/afm/pagd8a.afm
p1599
aV/Users/uranus/anaconda/lib/python2.7/site-packages/matplotlib/mpl-data/fonts/afm/pcrbo8a.afm
p1600
aV/Users/uranus/anaconda/lib/python2.7/site-packages/matplotlib/mpl-data/fonts/afm/pbkd8a.afm
p1601
aV/Users/uranus/anaconda/lib/python2.7/site-packages/matplotlib/mpl-data/fonts/pdfcorefonts/ZapfDingbats.afm
p1602
aV/Users/uranus/anaconda/lib/python2.7/site-packages/matplotlib/mpl-data/fonts/afm/cmex10.afm
p1603
aV/Users/uranus/anaconda/lib/python2.7/site-packages/matplotlib/mpl-data/fonts/afm/pplb8a.afm
p1604
aV/Users/uranus/anaconda/lib/python2.7/site-packages/matplotlib/mpl-data/fonts/afm/cmr10.afm
p1605
aV/Users/uranus/anaconda/lib/python2.7/site-packages/matplotlib/mpl-data/fonts/pdfcorefonts/Times-Italic.afm
p1606
aV/Users/uranus/anaconda/lib/python2.7/site-packages/matplotlib/mpl-data/fonts/afm/pcrro8a.afm
p1607
aV/Users/uranus/anaconda/lib/python2.7/site-packages/matplotlib/mpl-data/fonts/afm/phvbo8a.afm
p1608
aV/Users/uranus/anaconda/lib/python2.7/site-packages/matplotlib/mpl-data/fonts/afm/phvro8an.afm
p1609
aV/Users/uranus/anaconda/lib/python2.7/site-packages/matplotlib/mpl-data/fonts/afm/pzdr.afm
p1610
aV/Users/uranus/anaconda/lib/python2.7/site-packages/matplotlib/mpl-data/fonts/afm/cmsy10.afm
p1611
aV/Users/uranus/anaconda/lib/python2.7/site-packages/matplotlib/mpl-data/fonts/afm/pplri8a.afm
p1612
aV/Users/uranus/anaconda/lib/python2.7/site-packages/matplotlib/mpl-data/fonts/afm/pcrb8a.afm
p1613
aV/Users/uranus/anaconda/lib/python2.7/site-packages/matplotlib/mpl-data/fonts/afm/pbkli8a.afm
p1614
aV/Users/uranus/anaconda/lib/python2.7/site-packages/matplotlib/mpl-data/fonts/pdfcorefonts/Helvetica.afm
p1615
aV/Users/uranus/anaconda/lib/python2.7/site-packages/matplotlib/mpl-data/fonts/afm/phvbo8an.afm
p1616
aV/Users/uranus/anaconda/lib/python2.7/site-packages/matplotlib/mpl-data/fonts/afm/phvr8a.afm
p1617
aV/Users/uranus/anaconda/lib/python2.7/site-packages/matplotlib/mpl-data/fonts/afm/pbkl8a.afm
p1618
aV/Users/uranus/anaconda/lib/python2.7/site-packages/matplotlib/mpl-data/fonts/afm/ptmr8a.afm
p1619
aV/Users/uranus/anaconda/lib/python2.7/site-packages/matplotlib/mpl-data/fonts/afm/putbi8a.afm
p1620
aV/Users/uranus/anaconda/lib/python2.7/site-packages/matplotlib/mpl-data/fonts/afm/putr8a.afm
p1621
aV/Users/uranus/anaconda/lib/python2.7/site-packages/matplotlib/mpl-data/fonts/pdfcorefonts/Symbol.afm
p1622
aV/Users/uranus/anaconda/lib/python2.7/site-packages/matplotlib/mpl-data/fonts/pdfcorefonts/Helvetica-Oblique.afm
p1623
aV/Users/uranus/anaconda/lib/python2.7/site-packages/matplotlib/mpl-data/fonts/afm/pagko8a.afm
p1624
aV/Users/uranus/anaconda/lib/python2.7/site-packages/matplotlib/mpl-data/fonts/pdfcorefonts/Helvetica-Bold.afm
p1625
aV/Users/uranus/anaconda/lib/python2.7/site-packages/matplotlib/mpl-data/fonts/afm/pncri8a.afm
p1626
aV/Users/uranus/anaconda/lib/python2.7/site-packages/matplotlib/mpl-data/fonts/afm/pplr8a.afm
p1627
aV/Users/uranus/anaconda/lib/python2.7/site-packages/matplotlib/mpl-data/fonts/afm/psyr.afm
p1628
aV/Users/uranus/anaconda/lib/python2.7/site-packages/matplotlib/mpl-data/fonts/pdfcorefonts/Courier-Bold.afm
p1629
aV/Users/uranus/anaconda/lib/python2.7/site-packages/matplotlib/mpl-data/fonts/pdfcorefonts/Courier-Oblique.afm
p1630
aV/usr/X11/lib/X11/fonts/Type1/UTB_____.afm
p1631
aV/usr/X11/lib/X11/fonts/Type1/c0583bt_.afm
p1632
aV/usr/X11/lib/X11/fonts/Type1/l049036t.afm
p1633
aV/usr/X11/lib/X11/fonts/Type1/c0649bt_.afm
p1634
aV/usr/X11/lib/X11/fonts/Type1/UTRG____.afm
p1635
aV/usr/X11/lib/X11/fonts/Type1/c0582bt_.afm
p1636
aV/usr/X11/lib/X11/fonts/Type1/c0648bt_.afm
p1637
aV/usr/X11/lib/X11/fonts/Type1/c0633bt_.afm
p1638
aV/usr/X11/lib/X11/fonts/Type1/l048013t.afm
p1639
aV/usr/X11/lib/X11/fonts/Type1/courb.afm
p1640
aV/usr/X11/lib/X11/fonts/Type1/c0419bt_.afm
p1641
aV/usr/X11/lib/X11/fonts/Type1/UTI_____.afm
p1642
aV/usr/X11/lib/X11/fonts/Type1/l049016t.afm
p1643
aV/usr/X11/lib/X11/fonts/Type1/l048033t.afm
p1644
aV/usr/X11/lib/X11/fonts/Type1/l048016t.afm
p1645
aV/usr/X11/lib/X11/fonts/Type1/l048036t.afm
p1646
aV/usr/X11/lib/X11/fonts/Type1/courbi.afm
p1647
aV/usr/X11/lib/X11/fonts/Type1/c0632bt_.afm
p1648
aV/usr/X11/lib/X11/fonts/Type1/l049013t.afm
p1649
aV/usr/X11/lib/X11/fonts/Type1/c0611bt_.afm
p1650
aV/usr/X11/lib/X11/fonts/Type1/l047036t.afm
p1651
aV/usr/X11/lib/X11/fonts/Type1/l047016t.afm
p1652
aV/usr/X11/lib/X11/fonts/Type1/l047033t.afm
p1653
aV/usr/X11/lib/X11/fonts/Type1/l047013t.afm
p1654
aV/usr/X11/lib/X11/fonts/Type1/l049033t.afm
p1655
aV/usr/X11/lib/X11/fonts/Type1/UTBI____.afm
p1656
aV/usr/X11/lib/X11/fonts/Type1/cour.afm
p1657
aV/usr/X11/lib/X11/fonts/Type1/couri.afm
p1658
asS'afmlist'
p1659
(lp1660
g1
(g8
g3
NtRp1661
(dp1662
g11
Vnormal
p1663
sg13
S'Courier'
p1664
sg15
I500
sg16
g1663
sg18
g1663
sg19
g1569
sg21
Vscalable
p1665
sbag1
(g8
g3
NtRp1666
(dp1667
g11
Vitalic
p1668
sg13
S'Times'
p1669
sg15
I500
sg16
g1663
sg18
g1663
sg19
g1572
sg21
g1665
sbag1
(g8
g3
NtRp1670
(dp1671
g11
g1668
sg13
S'Palatino'
p1672
sg15
I700
sg16
g1663
sg18
g1663
sg19
g1573
sg21
g1665
sbag1
(g8
g3
NtRp1673
(dp1674
g11
g1663
sg13
S'Courier'
p1675
sg15
I500
sg16
g1663
sg18
g1663
sg19
g1574
sg21
g1665
sbag1
(g8
g3
NtRp1676
(dp1677
g11
g1668
sg13
S'Helvetica'
p1678
sg15
I700
sg16
g1663
sg18
g1663
sg19
g1575
sg21
g1665
sbag1
(g8
g3
NtRp1679
(dp1680
g11
g1663
sg13
S'Computer Modern'
p1681
sg15
I500
sg16
g1663
sg18
g1663
sg19
g1576
sg21
g1665
sbag1
(g8
g3
NtRp1682
(dp1683
g11
g1668
sg13
S'Utopia'
p1684
sg15
I400
sg16
g1663
sg18
g1663
sg19
g1577
sg21
g1665
sbag1
(g8
g3
NtRp1685
(dp1686
g11
g1668
sg13
S'Times'
p1687
sg15
I700
sg16
g1663
sg18
g1663
sg19
g1578
sg21
g1665
sbag1
(g8
g3
NtRp1688
(dp1689
g11
g1668
sg13
S'Helvetica'
p1690
sg15
I500
sg16
g1663
sg18
g1663
sg19
g1579
sg21
g1665
sbag1
(g8
g3
NtRp1691
(dp1692
g11
g1663
sg13
S'Helvetica'
p1693
sg15
I700
sg16
Vcondensed
p1694
sg18
g1663
sg19
g1580
sg21
g1665
sbag1
(g8
g3
NtRp1695
(dp1696
g11
g1668
sg13
S'Helvetica'
p1697
sg15
I200
sg16
g1663
sg18
g1663
sg19
g1581
sg21
g1665
sbag1
(g8
g3
NtRp1698
(dp1699
g11
g1663
sg13
S'Utopia'
p1700
sg15
I700
sg16
g1663
sg18
g1663
sg19
g1582
sg21
g1665
sbag1
(g8
g3
NtRp1701
(dp1702
g11
g1668
sg13
S'ITC Zapf Chancery'
p1703
sg15
I500
sg16
g1663
sg18
g1663
sg19
g1583
sg21
g1665
sbag1
(g8
g3
NtRp1704
(dp1705
g11
g1663
sg13
S'Times'
p1706
sg15
I500
sg16
g1663
sg18
g1663
sg19
g1584
sg21
g1665
sbag1
(g8
g3
NtRp1707
(dp1708
g11
g1668
sg13
S'ITC Bookman'
p1709
sg15
I600
sg16
g1663
sg18
g1663
sg19
g1585
sg21
g1665
sbag1
(g8
g3
NtRp1710
(dp1711
g11
g1668
sg13
S'Courier'
p1712
sg15
I700
sg16
g1663
sg18
g1663
sg19
g1586
sg21
g1665
sbag1
(g8
g3
NtRp1713
(dp1714
g11
g1663
sg13
S'Helvetica'
p1715
sg15
I200
sg16
g1663
sg18
g1663
sg19
g1587
sg21
g1665
sbag1
(g8
g3
NtRp1716
(dp1717
g11
g1663
sg13
S'New Century Schoolbook'
p1718
sg15
I700
sg16
g1663
sg18
g1663
sg19
g1588
sg21
g1665
sbag1
(g8
g3
NtRp1719
(dp1720
g11
g1663
sg13
S'Helvetica'
p1721
sg15
I500
sg16
g1694
sg18
g1663
sg19
g1589
sg21
g1665
sbag1
(g8
g3
NtRp1722
(dp1723
g11
g1668
sg13
S'Computer Modern'
p1724
sg15
I500
sg16
g1663
sg18
g1663
sg19
g1590
sg21
g1665
sbag1
(g8
g3
NtRp1725
(dp1726
g11
g1663
sg13
S'ITC Avant Garde Gothic'
p1727
sg15
I400
sg16
g1663
sg18
g1663
sg19
g1591
sg21
g1665
sbag1
(g8
g3
NtRp1728
(dp1729
g11
g1663
sg13
S'Helvetica'
p1730
sg15
I700
sg16
g1663
sg18
g1663
sg19
g1592
sg21
g1665
sbag1
(g8
g3
NtRp1731
(dp1732
g11
g1668
sg13
S'New Century Schoolbook'
p1733
sg15
I700
sg16
g1663
sg18
g1663
sg19
g1593
sg21
g1665
sbag1
(g8
g3
NtRp1734
(dp1735
g11
g1668
sg13
S'ITC Avant Garde Gothic'
p1736
sg15
I600
sg16
g1663
sg18
g1663
sg19
g1594
sg21
g1665
sbag1
(g8
g3
NtRp1737
(dp1738
g11
g1663
sg13
S'Times'
p1739
sg15
I700
sg16
g1663
sg18
g1663
sg19
g1595
sg21
g1665
sbag1
(g8
g3
NtRp1740
(dp1741
g11
g1663
sg13
S'Times'
p1742
sg15
I700
sg16
g1663
sg18
g1663
sg19
g1596
sg21
g1665
sbag1
(g8
g3
NtRp1743
(dp1744
g11
g1668
sg13
S'Times'
p1745
sg15
I700
sg16
g1663
sg18
g1663
sg19
g1597
sg21
g1665
sbag1
(g8
g3
NtRp1746
(dp1747
g11
g1663
sg13
S'New Century Schoolbook'
p1748
sg15
I500
sg16
g1663
sg18
g1663
sg19
g1598
sg21
g1665
sbag1
(g8
g3
NtRp1749
(dp1750
g11
g1663
sg13
S'ITC Avant Garde Gothic'
p1751
sg15
I600
sg16
g1663
sg18
g1663
sg19
g1599
sg21
g1665
sbag1
(g8
g3
NtRp1752
(dp1753
g11
g1668
sg13
S'Courier'
p1754
sg15
I700
sg16
g1663
sg18
g1663
sg19
g1600
sg21
g1665
sbag1
(g8
g3
NtRp1755
(dp1756
g11
g1663
sg13
S'ITC Bookman'
p1757
sg15
I600
sg16
g1663
sg18
g1663
sg19
g1601
sg21
g1665
sbag1
(g8
g3
NtRp1758
(dp1759
g11
g1663
sg13
S'ZapfDingbats'
p1760
sg15
I500
sg16
g1663
sg18
g1663
sg19
g1602
sg21
g1665
sbag1
(g8
g3
NtRp1761
(dp1762
g11
g1663
sg13
S'Computer Modern'
p1763
sg15
I500
sg16
g1663
sg18
g1663
sg19
g1603
sg21
g1665
sbag1
(g8
g3
NtRp1764
(dp1765
g11
g1663
sg13
S'Palatino'
p1766
sg15
I700
sg16
g1663
sg18
g1663
sg19
g1604
sg21
g1665
sbag1
(g8
g3
NtRp1767
(dp1768
g11
g1663
sg13
S'Computer Modern'
p1769
sg15
I500
sg16
g1663
sg18
g1663
sg19
g1605
sg21
g1665
sbag1
(g8
g3
NtRp1770
(dp1771
g11
g1668
sg13
S'Times'
p1772
sg15
I500
sg16
g1663
sg18
g1663
sg19
g1606
sg21
g1665
sbag1
(g8
g3
NtRp1773
(dp1774
g11
g1668
sg13
S'Courier'
p1775
sg15
I500
sg16
g1663
sg18
g1663
sg19
g1607
sg21
g1665
sbag1
(g8
g3
NtRp1776
(dp1777
g11
g1668
sg13
S'Helvetica'
p1778
sg15
I700
sg16
g1663
sg18
g1663
sg19
g1608
sg21
g1665
sbag1
(g8
g3
NtRp1779
(dp1780
g11
g1668
sg13
S'Helvetica'
p1781
sg15
I500
sg16
g1694
sg18
g1663
sg19
g1609
sg21
g1665
sbag1
(g8
g3
NtRp1782
(dp1783
g11
g1663
sg13
S'ITC Zapf Dingbats'
p1784
sg15
I500
sg16
g1663
sg18
g1663
sg19
g1610
sg21
g1665
sbag1
(g8
g3
NtRp1785
(dp1786
g11
g1668
sg13
S'Computer Modern'
p1787
sg15
I500
sg16
g1663
sg18
g1663
sg19
g1611
sg21
g1665
sbag1
(g8
g3
NtRp1788
(dp1789
g11
g1668
sg13
S'Palatino'
p1790
sg15
I500
sg16
g1663
sg18
g1663
sg19
g1612
sg21
g1665
sbag1
(g8
g3
NtRp1791
(dp1792
g11
g1663
sg13
S'Courier'
p1793
sg15
I700
sg16
g1663
sg18
g1663
sg19
g1613
sg21
g1665
sbag1
(g8
g3
NtRp1794
(dp1795
g11
g1668
sg13
S'ITC Bookman'
p1796
sg15
I200
sg16
g1663
sg18
g1663
sg19
g1614
sg21
g1665
sbag1
(g8
g3
NtRp1797
(dp1798
g11
g1663
sg13
S'Helvetica'
p1799
sg15
I500
sg16
g1663
sg18
g1663
sg19
g1615
sg21
g1665
sbag1
(g8
g3
NtRp1800
(dp1801
g11
g1668
sg13
S'Helvetica'
p1802
sg15
I700
sg16
g1694
sg18
g1663
sg19
g1616
sg21
g1665
sbag1
(g8
g3
NtRp1803
(dp1804
g11
g1663
sg13
S'Helvetica'
p1805
sg15
I500
sg16
g1663
sg18
g1663
sg19
g1617
sg21
g1665
sbag1
(g8
g3
NtRp1806
(dp1807
g11
g1663
sg13
S'ITC Bookman'
p1808
sg15
I200
sg16
g1663
sg18
g1663
sg19
g1618
sg21
g1665
sbag1
(g8
g3
NtRp1809
(dp1810
g11
g1663
sg13
S'Times'
p1811
sg15
I500
sg16
g1663
sg18
g1663
sg19
g1619
sg21
g1665
sbag1
(g8
g3
NtRp1812
(dp1813
g11
g1668
sg13
S'Utopia'
p1814
sg15
I700
sg16
g1663
sg18
g1663
sg19
g1620
sg21
g1665
sbag1
(g8
g3
NtRp1815
(dp1816
g11
g1663
sg13
S'Utopia'
p1817
sg15
I400
sg16
g1663
sg18
g1663
sg19
g1621
sg21
g1665
sbag1
(g8
g3
NtRp1818
(dp1819
g11
g1663
sg13
S'Symbol'
p1820
sg15
I500
sg16
g1663
sg18
g1663
sg19
g1622
sg21
g1665
sbag1
(g8
g3
NtRp1821
(dp1822
g11
g1668
sg13
S'Helvetica'
p1823
sg15
I500
sg16
g1663
sg18
g1663
sg19
g1623
sg21
g1665
sbag1
(g8
g3
NtRp1824
(dp1825
g11
g1668
sg13
S'ITC Avant Garde Gothic'
p1826
sg15
I400
sg16
g1663
sg18
g1663
sg19
g1624
sg21
g1665
sbag1
(g8
g3
NtRp1827
(dp1828
g11
g1663
sg13
S'Helvetica'
p1829
sg15
I700
sg16
g1663
sg18
g1663
sg19
g1625
sg21
g1665
sbag1
(g8
g3
NtRp1830
(dp1831
g11
g1668
sg13
S'New Century Schoolbook'
p1832
sg15
I500
sg16
g1663
sg18
g1663
sg19
g1626
sg21
g1665
sbag1
(g8
g3
NtRp1833
(dp1834
g11
g1663
sg13
S'Palatino'
p1835
sg15
I500
sg16
g1663
sg18
g1663
sg19
g1627
sg21
g1665
sbag1
(g8
g3
NtRp1836
(dp1837
g11
g1663
sg13
S'Symbol'
p1838
sg15
I500
sg16
g1663
sg18
g1663
sg19
g1628
sg21
g1665
sbag1
(g8
g3
NtRp1839
(dp1840
g11
g1663
sg13
S'Courier'
p1841
sg15
I700
sg16
g1663
sg18
g1663
sg19
g1629
sg21
g1665
sbag1
(g8
g3
NtRp1842
(dp1843
g11
g1668
sg13
S'Courier'
p1844
sg15
I500
sg16
g1663
sg18
g1663
sg19
g1630
sg21
g1665
sbag1
(g8
g3
NtRp1845
(dp1846
g11
g1663
sg13
S'Utopia'
p1847
sg15
I700
sg16
g1663
sg18
g1663
sg19
g1631
sg21
g1665
sbag1
(g8
g3
NtRp1848
(dp1849
g11
g1663
sg13
S'Courier 10 Pitch'
p1850
sg15
I700
sg16
g1663
sg18
g1663
sg19
g1632
sg21
g1665
sbag1
(g8
g3
NtRp1851
(dp1852
g11
g1668
sg13
S'Luxi Serif'
p1853
sg15
I700
sg16
g1663
sg18
g1663
sg19
g1633
sg21
g1665
sbag1
(g8
g3
NtRp1854
(dp1855
g11
g1668
sg13
S'Bitstream Charter'
p1856
sg15
I400
sg16
g1663
sg18
g1663
sg19
g1634
sg21
g1665
sbag1
(g8
g3
NtRp1857
(dp1858
g11
g1663
sg13
S'Utopia'
p1859
sg15
I400
sg16
g1663
sg18
g1663
sg19
g1635
sg21
g1665
sbag1
(g8
g3
NtRp1860
(dp1861
g11
g1668
sg13
S'Courier 10 Pitch'
p1862
sg15
I400
sg16
g1663
sg18
g1663
sg19
g1636
sg21
g1665
sbag1
(g8
g3
NtRp1863
(dp1864
g11
g1663
sg13
S'Bitstream Charter'
p1865
sg15
I400
sg16
g1663
sg18
g1663
sg19
g1637
sg21
g1665
sbag1
(g8
g3
NtRp1866
(dp1867
g11
g1668
sg13
S'Bitstream Charter'
p1868
sg15
I700
sg16
g1663
sg18
g1663
sg19
g1638
sg21
g1665
sbag1
(g8
g3
NtRp1869
(dp1870
g11
g1663
sg13
S'Luxi Sans'
p1871
sg15
I400
sg16
g1663
sg18
g1663
sg19
g1639
sg21
g1665
sbag1
(g8
g3
NtRp1872
(dp1873
g11
g1663
sg13
S'Courier'
p1874
sg15
I700
sg16
g1663
sg18
g1663
sg19
g1640
sg21
g1665
sbag1
(g8
g3
NtRp1875
(dp1876
g11
g1663
sg13
S'Courier 10 Pitch'
p1877
sg15
I400
sg16
g1663
sg18
g1663
sg19
g1641
sg21
g1665
sbag1
(g8
g3
NtRp1878
(dp1879
g11
g1668
sg13
S'Utopia'
p1880
sg15
I400
sg16
g1663
sg18
g1663
sg19
g1642
sg21
g1665
sbag1
(g8
g3
NtRp1881
(dp1882
g11
g1663
sg13
S'Luxi Serif'
p1883
sg15
I700
sg16
g1663
sg18
g1663
sg19
g1643
sg21
g1665
sbag1
(g8
g3
NtRp1884
(dp1885
g11
g1668
sg13
S'Luxi Sans'
p1886
sg15
I400
sg16
g1663
sg18
g1663
sg19
g1644
sg21
g1665
sbag1
(g8
g3
NtRp1887
(dp1888
g11
g1663
sg13
S'Luxi Sans'
p1889
sg15
I700
sg16
g1663
sg18
g1663
sg19
g1645
sg21
g1665
sbag1
(g8
g3
NtRp1890
(dp1891
g11
g1668
sg13
S'Luxi Sans'
p1892
sg15
I700
sg16
g1663
sg18
g1663
sg19
g1646
sg21
g1665
sbag1
(g8
g3
NtRp1893
(dp1894
g11
g1668
sg13
S'Courier'
p1895
sg15
I700
sg16
g1663
sg18
g1663
sg19
g1647
sg21
g1665
sbag1
(g8
g3
NtRp1896
(dp1897
g11
g1663
sg13
S'Bitstream Charter'
p1898
sg15
I700
sg16
g1663
sg18
g1663
sg19
g1648
sg21
g1665
sbag1
(g8
g3
NtRp1899
(dp1900
g11
g1663
sg13
S'Luxi Serif'
p1901
sg15
I400
sg16
g1663
sg18
g1663
sg19
g1649
sg21
g1665
sbag1
(g8
g3
NtRp1902
(dp1903
g11
g1668
sg13
S'Courier 10 Pitch'
p1904
sg15
I700
sg16
g1663
sg18
g1663
sg19
g1650
sg21
g1665
sbag1
(g8
g3
NtRp1905
(dp1906
g11
g1668
sg13
S'Luxi Mono'
p1907
sg15
I700
sg16
g1663
sg18
g1663
sg19
g1651
sg21
g1665
sbag1
(g8
g3
NtRp1908
(dp1909
g11
g1663
sg13
S'Luxi Mono'
p1910
sg15
I700
sg16
g1663
sg18
g1663
sg19
g1652
sg21
g1665
sbag1
(g8
g3
NtRp1911
(dp1912
g11
g1668
sg13
S'Luxi Mono'
p1913
sg15
I400
sg16
g1663
sg18
g1663
sg19
g1653
sg21
g1665
sbag1
(g8
g3
NtRp1914
(dp1915
g11
g1663
sg13
S'Luxi Mono'
p1916
sg15
I400
sg16
g1663
sg18
g1663
sg19
g1654
sg21
g1665
sbag1
(g8
g3
NtRp1917
(dp1918
g11
g1668
sg13
S'Luxi Serif'
p1919
sg15
I400
sg16
g1663
sg18
g1663
sg19
g1655
sg21
g1665
sbag1
(g8
g3
NtRp1920
(dp1921
g11
g1668
sg13
S'Utopia'
p1922
sg15
I700
sg16
g1663
sg18
g1663
sg19
g1656
sg21
g1665
sbag1
(g8
g3
NtRp1923
(dp1924
g11
g1663
sg13
S'Courier'
p1925
sg15
I400
sg16
g1663
sg18
g1663
sg19
g1657
sg21
g1665
sbag1
(g8
g3
NtRp1926
(dp1927
g11
g1668
sg13
S'Courier'
p1928
sg15
I400
sg16
g1663
sg18
g1663
sg19
g1658
sg21
g1665
sbasb.